MSP430 Assembler PC v21.6.0 Tue Aug  1 23:01:41 2023

Copyright (c) 2003-2018 Texas Instruments Incorporated
C:\Users\eas0035\AppData\Local\Temp\{5BCD9170-B37C-44F2-A877-1E9220DDA60C} PAGE    1

       1            ;******************************************************************************
       2            ;* MSP430 G3 C/C++ Codegen                                              PC v21.6.0.LTS *
       3            ;* Date/Time created: Tue Aug  1 23:01:41 2023                                *
       4            ;******************************************************************************
       5                    .compiler_opts --abi=eabi --diag_wrap=off --hll_source=on --mem_model:code=small --mem_model:d
       6            
       7            $C$DW$CU        .dwtag  DW_TAG_compile_unit
       8                    .dwattr $C$DW$CU, DW_AT_name("../project.c")
       9                    .dwattr $C$DW$CU, DW_AT_producer("TI MSP430 G3 C/C++ Codegen PC v21.6.0.LTS Copyright (c) 2003
      10                    .dwattr $C$DW$CU, DW_AT_TI_version(0x01)
      11                    .dwattr $C$DW$CU, DW_AT_comp_dir("C:\Users\eas0035\Documents\CPE325Workspace\final_project\Deb
      12            ;       Interrupt vector table mappings
      13 000000               .intvec ".int20",       Port1_ISR
         000000       
      14            $C$DW$1 .dwtag  DW_TAG_variable
      15                    .dwattr $C$DW$1, DW_AT_name("IE2")
      16                    .dwattr $C$DW$1, DW_AT_TI_symbol_name("IE2")
      17                    .dwattr $C$DW$1, DW_AT_type(*$C$DW$T$39)
      18                    .dwattr $C$DW$1, DW_AT_declaration
      19                    .dwattr $C$DW$1, DW_AT_external
      20                    .dwattr $C$DW$1, DW_AT_decl_file("C:/ti/ccs1200/ccs/ccs_base/msp430/include/msp430xG46x.h")
      21                    .dwattr $C$DW$1, DW_AT_decl_line(0xb0)
      22                    .dwattr $C$DW$1, DW_AT_decl_column(0x01)
      23            
      24            $C$DW$2 .dwtag  DW_TAG_variable
      25                    .dwattr $C$DW$2, DW_AT_name("IFG2")
      26                    .dwattr $C$DW$2, DW_AT_TI_symbol_name("IFG2")
      27                    .dwattr $C$DW$2, DW_AT_type(*$C$DW$T$39)
      28                    .dwattr $C$DW$2, DW_AT_declaration
      29                    .dwattr $C$DW$2, DW_AT_external
      30                    .dwattr $C$DW$2, DW_AT_decl_file("C:/ti/ccs1200/ccs/ccs_base/msp430/include/msp430xG46x.h")
      31                    .dwattr $C$DW$2, DW_AT_decl_line(0xbb)
      32                    .dwattr $C$DW$2, DW_AT_decl_column(0x01)
      33            
      34            $C$DW$3 .dwtag  DW_TAG_variable
      35                    .dwattr $C$DW$3, DW_AT_name("P1IFG")
      36                    .dwattr $C$DW$3, DW_AT_TI_symbol_name("P1IFG")
      37                    .dwattr $C$DW$3, DW_AT_type(*$C$DW$T$39)
      38                    .dwattr $C$DW$3, DW_AT_declaration
      39                    .dwattr $C$DW$3, DW_AT_external
      40                    .dwattr $C$DW$3, DW_AT_decl_file("C:/ti/ccs1200/ccs/ccs_base/msp430/include/msp430xG46x.h")
      41                    .dwattr $C$DW$3, DW_AT_decl_line(0x456)
      42                    .dwattr $C$DW$3, DW_AT_decl_column(0x01)
      43            
      44            $C$DW$4 .dwtag  DW_TAG_variable
      45                    .dwattr $C$DW$4, DW_AT_name("P1IES")
      46                    .dwattr $C$DW$4, DW_AT_TI_symbol_name("P1IES")
      47                    .dwattr $C$DW$4, DW_AT_type(*$C$DW$T$39)
      48                    .dwattr $C$DW$4, DW_AT_declaration
      49                    .dwattr $C$DW$4, DW_AT_external
      50                    .dwattr $C$DW$4, DW_AT_decl_file("C:/ti/ccs1200/ccs/ccs_base/msp430/include/msp430xG46x.h")
      51                    .dwattr $C$DW$4, DW_AT_decl_line(0x457)
      52                    .dwattr $C$DW$4, DW_AT_decl_column(0x01)
      53            
      54            $C$DW$5 .dwtag  DW_TAG_variable
MSP430 Assembler PC v21.6.0 Tue Aug  1 23:01:41 2023

Copyright (c) 2003-2018 Texas Instruments Incorporated
C:\Users\eas0035\AppData\Local\Temp\{5BCD9170-B37C-44F2-A877-1E9220DDA60C} PAGE    2

      55                    .dwattr $C$DW$5, DW_AT_name("P1IE")
      56                    .dwattr $C$DW$5, DW_AT_TI_symbol_name("P1IE")
      57                    .dwattr $C$DW$5, DW_AT_type(*$C$DW$T$39)
      58                    .dwattr $C$DW$5, DW_AT_declaration
      59                    .dwattr $C$DW$5, DW_AT_external
      60                    .dwattr $C$DW$5, DW_AT_decl_file("C:/ti/ccs1200/ccs/ccs_base/msp430/include/msp430xG46x.h")
      61                    .dwattr $C$DW$5, DW_AT_decl_line(0x458)
      62                    .dwattr $C$DW$5, DW_AT_decl_column(0x01)
      63            
      64            $C$DW$6 .dwtag  DW_TAG_variable
      65                    .dwattr $C$DW$6, DW_AT_name("P2DIR")
      66                    .dwattr $C$DW$6, DW_AT_TI_symbol_name("P2DIR")
      67                    .dwattr $C$DW$6, DW_AT_type(*$C$DW$T$39)
      68                    .dwattr $C$DW$6, DW_AT_declaration
      69                    .dwattr $C$DW$6, DW_AT_external
      70                    .dwattr $C$DW$6, DW_AT_decl_file("C:/ti/ccs1200/ccs/ccs_base/msp430/include/msp430xG46x.h")
      71                    .dwattr $C$DW$6, DW_AT_decl_line(0x45d)
      72                    .dwattr $C$DW$6, DW_AT_decl_column(0x01)
      73            
      74            $C$DW$7 .dwtag  DW_TAG_variable
      75                    .dwattr $C$DW$7, DW_AT_name("P2SEL")
      76                    .dwattr $C$DW$7, DW_AT_TI_symbol_name("P2SEL")
      77                    .dwattr $C$DW$7, DW_AT_type(*$C$DW$T$39)
      78                    .dwattr $C$DW$7, DW_AT_declaration
      79                    .dwattr $C$DW$7, DW_AT_external
      80                    .dwattr $C$DW$7, DW_AT_decl_file("C:/ti/ccs1200/ccs/ccs_base/msp430/include/msp430xG46x.h")
      81                    .dwattr $C$DW$7, DW_AT_decl_line(0x461)
      82                    .dwattr $C$DW$7, DW_AT_decl_column(0x01)
      83            
      84            $C$DW$8 .dwtag  DW_TAG_variable
      85                    .dwattr $C$DW$8, DW_AT_name("TBCTL")
      86                    .dwattr $C$DW$8, DW_AT_TI_symbol_name("TBCTL")
      87                    .dwattr $C$DW$8, DW_AT_type(*$C$DW$T$66)
      88                    .dwattr $C$DW$8, DW_AT_declaration
      89                    .dwattr $C$DW$8, DW_AT_external
      90                    .dwattr $C$DW$8, DW_AT_decl_file("C:/ti/ccs1200/ccs/ccs_base/msp430/include/msp430xG46x.h")
      91                    .dwattr $C$DW$8, DW_AT_decl_line(0x550)
      92                    .dwattr $C$DW$8, DW_AT_decl_column(0x01)
      93            
      94            $C$DW$9 .dwtag  DW_TAG_variable
      95                    .dwattr $C$DW$9, DW_AT_name("TBCCTL0")
      96                    .dwattr $C$DW$9, DW_AT_TI_symbol_name("TBCCTL0")
      97                    .dwattr $C$DW$9, DW_AT_type(*$C$DW$T$66)
      98                    .dwattr $C$DW$9, DW_AT_declaration
      99                    .dwattr $C$DW$9, DW_AT_external
     100                    .dwattr $C$DW$9, DW_AT_decl_file("C:/ti/ccs1200/ccs/ccs_base/msp430/include/msp430xG46x.h")
     101                    .dwattr $C$DW$9, DW_AT_decl_line(0x551)
     102                    .dwattr $C$DW$9, DW_AT_decl_column(0x01)
     103            
     104            $C$DW$10        .dwtag  DW_TAG_variable
     105                    .dwattr $C$DW$10, DW_AT_name("TBCCR0")
     106                    .dwattr $C$DW$10, DW_AT_TI_symbol_name("TBCCR0")
     107                    .dwattr $C$DW$10, DW_AT_type(*$C$DW$T$66)
     108                    .dwattr $C$DW$10, DW_AT_declaration
     109                    .dwattr $C$DW$10, DW_AT_external
MSP430 Assembler PC v21.6.0 Tue Aug  1 23:01:41 2023

Copyright (c) 2003-2018 Texas Instruments Incorporated
C:\Users\eas0035\AppData\Local\Temp\{5BCD9170-B37C-44F2-A877-1E9220DDA60C} PAGE    3

     110                    .dwattr $C$DW$10, DW_AT_decl_file("C:/ti/ccs1200/ccs/ccs_base/msp430/include/msp430xG46x.h")
     111                    .dwattr $C$DW$10, DW_AT_decl_line(0x559)
     112                    .dwattr $C$DW$10, DW_AT_decl_column(0x01)
     113            
     114            $C$DW$11        .dwtag  DW_TAG_variable
     115                    .dwattr $C$DW$11, DW_AT_name("UCA0CTL1")
     116                    .dwattr $C$DW$11, DW_AT_TI_symbol_name("UCA0CTL1")
     117                    .dwattr $C$DW$11, DW_AT_type(*$C$DW$T$39)
     118                    .dwattr $C$DW$11, DW_AT_declaration
     119                    .dwattr $C$DW$11, DW_AT_external
     120                    .dwattr $C$DW$11, DW_AT_decl_file("C:/ti/ccs1200/ccs/ccs_base/msp430/include/msp430xG46x.h")
     121                    .dwattr $C$DW$11, DW_AT_decl_line(0x5d0)
     122                    .dwattr $C$DW$11, DW_AT_decl_column(0x01)
     123            
     124            $C$DW$12        .dwtag  DW_TAG_variable
     125                    .dwattr $C$DW$12, DW_AT_name("UCA0BR0")
     126                    .dwattr $C$DW$12, DW_AT_TI_symbol_name("UCA0BR0")
     127                    .dwattr $C$DW$12, DW_AT_type(*$C$DW$T$39)
     128                    .dwattr $C$DW$12, DW_AT_declaration
     129                    .dwattr $C$DW$12, DW_AT_external
     130                    .dwattr $C$DW$12, DW_AT_decl_file("C:/ti/ccs1200/ccs/ccs_base/msp430/include/msp430xG46x.h")
     131                    .dwattr $C$DW$12, DW_AT_decl_line(0x5d1)
     132                    .dwattr $C$DW$12, DW_AT_decl_column(0x01)
     133            
     134            $C$DW$13        .dwtag  DW_TAG_variable
     135                    .dwattr $C$DW$13, DW_AT_name("UCA0BR1")
     136                    .dwattr $C$DW$13, DW_AT_TI_symbol_name("UCA0BR1")
     137                    .dwattr $C$DW$13, DW_AT_type(*$C$DW$T$39)
     138                    .dwattr $C$DW$13, DW_AT_declaration
     139                    .dwattr $C$DW$13, DW_AT_external
     140                    .dwattr $C$DW$13, DW_AT_decl_file("C:/ti/ccs1200/ccs/ccs_base/msp430/include/msp430xG46x.h")
     141                    .dwattr $C$DW$13, DW_AT_decl_line(0x5d2)
     142                    .dwattr $C$DW$13, DW_AT_decl_column(0x01)
     143            
     144            $C$DW$14        .dwtag  DW_TAG_variable
     145                    .dwattr $C$DW$14, DW_AT_name("UCA0MCTL")
     146                    .dwattr $C$DW$14, DW_AT_TI_symbol_name("UCA0MCTL")
     147                    .dwattr $C$DW$14, DW_AT_type(*$C$DW$T$39)
     148                    .dwattr $C$DW$14, DW_AT_declaration
     149                    .dwattr $C$DW$14, DW_AT_external
     150                    .dwattr $C$DW$14, DW_AT_decl_file("C:/ti/ccs1200/ccs/ccs_base/msp430/include/msp430xG46x.h")
     151                    .dwattr $C$DW$14, DW_AT_decl_line(0x5d3)
     152                    .dwattr $C$DW$14, DW_AT_decl_column(0x01)
     153            
     154            $C$DW$15        .dwtag  DW_TAG_variable
     155                    .dwattr $C$DW$15, DW_AT_name("UCA0RXBUF")
     156                    .dwattr $C$DW$15, DW_AT_TI_symbol_name("UCA0RXBUF")
     157                    .dwattr $C$DW$15, DW_AT_type(*$C$DW$T$39)
     158                    .dwattr $C$DW$15, DW_AT_declaration
     159                    .dwattr $C$DW$15, DW_AT_external
     160                    .dwattr $C$DW$15, DW_AT_decl_file("C:/ti/ccs1200/ccs/ccs_base/msp430/include/msp430xG46x.h")
     161                    .dwattr $C$DW$15, DW_AT_decl_line(0x5d5)
     162                    .dwattr $C$DW$15, DW_AT_decl_column(0x01)
     163            
     164            $C$DW$16        .dwtag  DW_TAG_variable
MSP430 Assembler PC v21.6.0 Tue Aug  1 23:01:41 2023

Copyright (c) 2003-2018 Texas Instruments Incorporated
C:\Users\eas0035\AppData\Local\Temp\{5BCD9170-B37C-44F2-A877-1E9220DDA60C} PAGE    4

     165                    .dwattr $C$DW$16, DW_AT_name("UCA0TXBUF")
     166                    .dwattr $C$DW$16, DW_AT_TI_symbol_name("UCA0TXBUF")
     167                    .dwattr $C$DW$16, DW_AT_type(*$C$DW$T$39)
     168                    .dwattr $C$DW$16, DW_AT_declaration
     169                    .dwattr $C$DW$16, DW_AT_external
     170                    .dwattr $C$DW$16, DW_AT_decl_file("C:/ti/ccs1200/ccs/ccs_base/msp430/include/msp430xG46x.h")
     171                    .dwattr $C$DW$16, DW_AT_decl_line(0x5d6)
     172                    .dwattr $C$DW$16, DW_AT_decl_column(0x01)
     173            
     174            $C$DW$17        .dwtag  DW_TAG_variable
     175                    .dwattr $C$DW$17, DW_AT_name("WDTCTL")
     176                    .dwattr $C$DW$17, DW_AT_TI_symbol_name("WDTCTL")
     177                    .dwattr $C$DW$17, DW_AT_type(*$C$DW$T$66)
     178                    .dwattr $C$DW$17, DW_AT_declaration
     179                    .dwattr $C$DW$17, DW_AT_external
     180                    .dwattr $C$DW$17, DW_AT_decl_file("C:/ti/ccs1200/ccs/ccs_base/msp430/include/msp430xG46x.h")
     181                    .dwattr $C$DW$17, DW_AT_decl_line(0x6e5)
     182                    .dwattr $C$DW$17, DW_AT_decl_column(0x01)
     183            
     184                    .global caesar
     185 000000               .data
     186                    .align  2
     187                    .elfsym caesar,SYM_SIZE(2)
     188 000000       caesar:
     189 000000 0001          .bits           0x1,16
     190                                    ; caesar @ 0
     191            
     192            $C$DW$18        .dwtag  DW_TAG_variable
     193                    .dwattr $C$DW$18, DW_AT_name("caesar")
     194                    .dwattr $C$DW$18, DW_AT_TI_symbol_name("caesar")
     195                    .dwattr $C$DW$18, DW_AT_location[DW_OP_addr caesar]
     196                    .dwattr $C$DW$18, DW_AT_type(*$C$DW$T$11)
     197                    .dwattr $C$DW$18, DW_AT_external
     198                    .dwattr $C$DW$18, DW_AT_decl_file("../project.c")
     199                    .dwattr $C$DW$18, DW_AT_decl_line(0x23)
     200                    .dwattr $C$DW$18, DW_AT_decl_column(0x0e)
     201            
     202                    .global substitution
     203 000002               .data
     204                    .align  2
     205                    .elfsym substitution,SYM_SIZE(2)
     206 000002       substitution:
     207 000002 0000          .bits           0,16
     208                                    ; substitution @ 0
     209            
     210            $C$DW$19        .dwtag  DW_TAG_variable
     211                    .dwattr $C$DW$19, DW_AT_name("substitution")
     212                    .dwattr $C$DW$19, DW_AT_TI_symbol_name("substitution")
     213                    .dwattr $C$DW$19, DW_AT_location[DW_OP_addr substitution]
     214                    .dwattr $C$DW$19, DW_AT_type(*$C$DW$T$11)
     215                    .dwattr $C$DW$19, DW_AT_external
     216                    .dwattr $C$DW$19, DW_AT_decl_file("../project.c")
     217                    .dwattr $C$DW$19, DW_AT_decl_line(0x24)
     218                    .dwattr $C$DW$19, DW_AT_decl_column(0x0e)
     219            
MSP430 Assembler PC v21.6.0 Tue Aug  1 23:01:41 2023

Copyright (c) 2003-2018 Texas Instruments Incorporated
C:\Users\eas0035\AppData\Local\Temp\{5BCD9170-B37C-44F2-A877-1E9220DDA60C} PAGE    5

     220                    .global vigenere
     221 000004               .data
     222                    .align  2
     223                    .elfsym vigenere,SYM_SIZE(2)
     224 000004       vigenere:
     225 000004 0000          .bits           0,16
     226                                    ; vigenere @ 0
     227            
     228            $C$DW$20        .dwtag  DW_TAG_variable
     229                    .dwattr $C$DW$20, DW_AT_name("vigenere")
     230                    .dwattr $C$DW$20, DW_AT_TI_symbol_name("vigenere")
     231                    .dwattr $C$DW$20, DW_AT_location[DW_OP_addr vigenere]
     232                    .dwattr $C$DW$20, DW_AT_type(*$C$DW$T$11)
     233                    .dwattr $C$DW$20, DW_AT_external
     234                    .dwattr $C$DW$20, DW_AT_decl_file("../project.c")
     235                    .dwattr $C$DW$20, DW_AT_decl_line(0x25)
     236                    .dwattr $C$DW$20, DW_AT_decl_column(0x0e)
     237            
     238                    .global S1pressed
     239 000006               .data
     240                    .align  2
     241                    .elfsym S1pressed,SYM_SIZE(2)
     242 000006       S1pressed:
     243 000006 0000          .bits           0,16
     244                                    ; S1pressed @ 0
     245            
     246            $C$DW$21        .dwtag  DW_TAG_variable
     247                    .dwattr $C$DW$21, DW_AT_name("S1pressed")
     248                    .dwattr $C$DW$21, DW_AT_TI_symbol_name("S1pressed")
     249                    .dwattr $C$DW$21, DW_AT_location[DW_OP_addr S1pressed]
     250                    .dwattr $C$DW$21, DW_AT_type(*$C$DW$T$11)
     251                    .dwattr $C$DW$21, DW_AT_external
     252                    .dwattr $C$DW$21, DW_AT_decl_file("../project.c")
     253                    .dwattr $C$DW$21, DW_AT_decl_line(0x26)
     254                    .dwattr $C$DW$21, DW_AT_decl_column(0x0e)
     255            
     256            
     257            $C$DW$22        .dwtag  DW_TAG_subprogram
     258                    .dwattr $C$DW$22, DW_AT_name("strlen")
     259                    .dwattr $C$DW$22, DW_AT_TI_symbol_name("strlen")
     260                    .dwattr $C$DW$22, DW_AT_type(*$C$DW$T$77)
     261                    .dwattr $C$DW$22, DW_AT_declaration
     262                    .dwattr $C$DW$22, DW_AT_external
     263                    .dwattr $C$DW$22, DW_AT_decl_file("C:/ti/ccs1200/ccs/tools/compiler/ti-cgt-msp430_21.6.0.LTS/i
     264                    .dwattr $C$DW$22, DW_AT_decl_line(0x56)
     265                    .dwattr $C$DW$22, DW_AT_decl_column(0x14)
     266            $C$DW$23        .dwtag  DW_TAG_formal_parameter
     267                    .dwattr $C$DW$23, DW_AT_type(*$C$DW$T$47)
     268            
     269                    .dwendtag $C$DW$22
     270            
     271            
     272            $C$DW$24        .dwtag  DW_TAG_subprogram
     273                    .dwattr $C$DW$24, DW_AT_name("printf")
     274                    .dwattr $C$DW$24, DW_AT_TI_symbol_name("printf")
MSP430 Assembler PC v21.6.0 Tue Aug  1 23:01:41 2023

Copyright (c) 2003-2018 Texas Instruments Incorporated
C:\Users\eas0035\AppData\Local\Temp\{5BCD9170-B37C-44F2-A877-1E9220DDA60C} PAGE    6

     275                    .dwattr $C$DW$24, DW_AT_type(*$C$DW$T$10)
     276                    .dwattr $C$DW$24, DW_AT_declaration
     277                    .dwattr $C$DW$24, DW_AT_external
     278                    .dwattr $C$DW$24, DW_AT_decl_file("C:/ti/ccs1200/ccs/tools/compiler/ti-cgt-msp430_21.6.0.LTS/i
     279                    .dwattr $C$DW$24, DW_AT_decl_line(0x100)
     280                    .dwattr $C$DW$24, DW_AT_decl_column(0x19)
     281            $C$DW$25        .dwtag  DW_TAG_formal_parameter
     282                    .dwattr $C$DW$25, DW_AT_type(*$C$DW$T$48)
     283            
     284            $C$DW$26        .dwtag  DW_TAG_unspecified_parameters
     285            
     286                    .dwendtag $C$DW$24
     287            
     288            ;       C:\ti\ccs1200\ccs\tools\compiler\ti-cgt-msp430_21.6.0.LTS\bin\acpia430.exe -@C:\\Users\\eas003
     289 000000               .sect   ".text:main"
     290                    .clink
     291                    .global main
     292            
     293            $C$DW$27        .dwtag  DW_TAG_subprogram
     294                    .dwattr $C$DW$27, DW_AT_name("main")
     295                    .dwattr $C$DW$27, DW_AT_low_pc(main)
     296                    .dwattr $C$DW$27, DW_AT_high_pc(0x00)
     297                    .dwattr $C$DW$27, DW_AT_TI_symbol_name("main")
     298                    .dwattr $C$DW$27, DW_AT_external
     299                    .dwattr $C$DW$27, DW_AT_TI_begin_file("../project.c")
     300                    .dwattr $C$DW$27, DW_AT_TI_begin_line(0x28)
     301                    .dwattr $C$DW$27, DW_AT_TI_begin_column(0x06)
     302                    .dwattr $C$DW$27, DW_AT_decl_file("../project.c")
     303                    .dwattr $C$DW$27, DW_AT_decl_line(0x28)
     304                    .dwattr $C$DW$27, DW_AT_decl_column(0x06)
     305                    .dwattr $C$DW$27, DW_AT_TI_max_frame_size(0x02)
     306                    .dwpsn  file "../project.c",line 40,column 17,is_stmt,address main,isa 0
     307            
     308                    .dwfde $C$DW$CIE, main
     309            
     310            ;*****************************************************************************
     311            ;* FUNCTION NAME: main                                                       *
     312            ;*                                                                           *
     313            ;*   Regs Modified     : SP,SR,r11,r12,r13,r14,r15                           *
     314            ;*   Regs Used         : SP,SR,r11,r12,r13,r14,r15                           *
     315            ;*   Local Frame Size  : 0 Args + 0 Auto + 0 Save = 0 byte                   *
     316            ;*****************************************************************************
     317 000000       main:
     318            ;* --------------------------------------------------------------------------*
     319                    .dwcfi  cfa_offset, 2
     320                    .dwcfi  save_reg_to_mem, 16, -2
     321                    .dwpsn  file "../project.c",line 42,column 5,is_stmt,isa 0
     322 000000 40B2          MOV.W     #23168,&WDTCTL+0      ; [] |42| 
         000002 5A80 
         000004 0000!
     323                    .dwpsn  file "../project.c",line 43,column 5,is_stmt,isa 0
     324 000006 D232          EINT      ; [] |43| 
     325                    .dwpsn  file "../project.c",line 44,column 5,is_stmt,isa 0
     326            $C$DW$28        .dwtag  DW_TAG_TI_branch
     327                    .dwattr $C$DW$28, DW_AT_low_pc(0x00)
MSP430 Assembler PC v21.6.0 Tue Aug  1 23:01:41 2023

Copyright (c) 2003-2018 Texas Instruments Incorporated
C:\Users\eas0035\AppData\Local\Temp\{5BCD9170-B37C-44F2-A877-1E9220DDA60C} PAGE    7

     328                    .dwattr $C$DW$28, DW_AT_name("switch_setup")
     329                    .dwattr $C$DW$28, DW_AT_TI_call
     330            
     331 000008 12B0          CALL      #switch_setup         ; [] |44| 
         00000a 0000!
     332                                                      ; [] |44| 
     333                    .dwpsn  file "../project.c",line 45,column 5,is_stmt,isa 0
     334            $C$DW$29        .dwtag  DW_TAG_TI_branch
     335                    .dwattr $C$DW$29, DW_AT_low_pc(0x00)
     336                    .dwattr $C$DW$29, DW_AT_name("timerB_setup")
     337                    .dwattr $C$DW$29, DW_AT_TI_call
     338            
     339 00000c 12B0          CALL      #timerB_setup         ; [] |45| 
         00000e 0000!
     340                                                      ; [] |45| 
     341                    .dwpsn  file "../project.c",line 46,column 5,is_stmt,isa 0
     342 000010 D3E2          OR.B      #2,&P2DIR+0           ; [] |46| 
         000012 0000!
     343                    .dwpsn  file "../project.c",line 47,column 5,is_stmt,isa 0
     344 000014 D0F2          OR.B      #50,&P2SEL+0          ; [] |47| 
         000016 0032 
         000018 0000!
     345                    .dwpsn  file "../project.c",line 48,column 5,is_stmt,isa 0
     346            $C$DW$30        .dwtag  DW_TAG_TI_branch
     347                    .dwattr $C$DW$30, DW_AT_low_pc(0x00)
     348                    .dwattr $C$DW$30, DW_AT_name("UART_setup")
     349                    .dwattr $C$DW$30, DW_AT_TI_call
     350            
     351 00001a 12B0          CALL      #UART_setup           ; [] |48| 
         00001c 0000!
     352                                                      ; [] |48| 
     353                    .dwpsn  file "../project.c",line 51,column 5,is_stmt,isa 0
     354 00001e 403C          MOV.W     #$C$SL1+0,r12         ; [] |51| 
         000020 0000!
     355            $C$DW$31        .dwtag  DW_TAG_TI_branch
     356                    .dwattr $C$DW$31, DW_AT_low_pc(0x00)
     357                    .dwattr $C$DW$31, DW_AT_name("UART_send_string")
     358                    .dwattr $C$DW$31, DW_AT_TI_call
     359            
     360 000022 12B0          CALL      #UART_send_string     ; [] |51| 
         000024 0000!
     361                                                      ; [] |51| 
     362                    .dwpsn  file "../project.c",line 52,column 5,is_stmt,isa 0
     363 000026 403C          MOV.W     #$C$SL2+0,r12         ; [] |52| 
         000028 0000!
     364            $C$DW$32        .dwtag  DW_TAG_TI_branch
     365                    .dwattr $C$DW$32, DW_AT_low_pc(0x00)
     366                    .dwattr $C$DW$32, DW_AT_name("UART_send_string")
     367                    .dwattr $C$DW$32, DW_AT_TI_call
     368            
     369 00002a 12B0          CALL      #UART_send_string     ; [] |52| 
         00002c 0000!
     370                                                      ; [] |52| 
     371                    .dwpsn  file "../project.c",line 53,column 5,is_stmt,isa 0
     372 00002e 403C          MOV.W     #$C$SL3+0,r12         ; [] |53| 
MSP430 Assembler PC v21.6.0 Tue Aug  1 23:01:41 2023

Copyright (c) 2003-2018 Texas Instruments Incorporated
C:\Users\eas0035\AppData\Local\Temp\{5BCD9170-B37C-44F2-A877-1E9220DDA60C} PAGE    8

         000030 0000!
     373            $C$DW$33        .dwtag  DW_TAG_TI_branch
     374                    .dwattr $C$DW$33, DW_AT_low_pc(0x00)
     375                    .dwattr $C$DW$33, DW_AT_name("UART_send_string")
     376                    .dwattr $C$DW$33, DW_AT_TI_call
     377            
     378 000032 12B0          CALL      #UART_send_string     ; [] |53| 
         000034 0000!
     379                                                      ; [] |53| 
     380                    .dwpsn  file "../project.c",line 54,column 5,is_stmt,isa 0
     381 000036 403C          MOV.W     #$C$SL4+0,r12         ; [] |54| 
         000038 0000!
     382            $C$DW$34        .dwtag  DW_TAG_TI_branch
     383                    .dwattr $C$DW$34, DW_AT_low_pc(0x00)
     384                    .dwattr $C$DW$34, DW_AT_name("UART_send_string")
     385                    .dwattr $C$DW$34, DW_AT_TI_call
     386            
     387 00003a 12B0          CALL      #UART_send_string     ; [] |54| 
         00003c 0000!
     388                                                      ; [] |54| 
     389                    .dwpsn  file "../project.c",line 55,column 5,is_stmt,isa 0
     390 00003e 403C          MOV.W     #$C$SL5+0,r12         ; [] |55| 
         000040 0000!
     391            $C$DW$35        .dwtag  DW_TAG_TI_branch
     392                    .dwattr $C$DW$35, DW_AT_low_pc(0x00)
     393                    .dwattr $C$DW$35, DW_AT_name("UART_send_string")
     394                    .dwattr $C$DW$35, DW_AT_TI_call
     395            
     396 000042 12B0          CALL      #UART_send_string     ; [] |55| 
         000044 0000!
     397                                                      ; [] |55| 
     398                    .dwpsn  file "../project.c",line 56,column 12,is_stmt,isa 0
     399            ;* --------------------------------------------------------------------------*
     400            ;*   BEGIN LOOP $C$L1
     401            ;*
     402            ;*   Loop source line                : 56
     403            ;*   Loop closing brace source line  : 71
     404            ;*   Known Minimum Trip Count        : 1
     405            ;*   Known Maximum Trip Count        : 4294967295
     406            ;*   Known Max Trip Count Factor     : 1
     407            ;* --------------------------------------------------------------------------*
     408 000046       $C$L1:    
     409                    .dwpsn  file "../project.c",line 58,column 9,is_stmt,isa 0
     410 000046 403C          MOV.W     #$C$SL6+0,r12         ; [] |58| 
         000048 0000!
     411            $C$DW$36        .dwtag  DW_TAG_TI_branch
     412                    .dwattr $C$DW$36, DW_AT_low_pc(0x00)
     413                    .dwattr $C$DW$36, DW_AT_name("UART_send_string")
     414                    .dwattr $C$DW$36, DW_AT_TI_call
     415            
     416 00004a 12B0          CALL      #UART_send_string     ; [] |58| 
         00004c 0000!
     417                                                      ; [] |58| 
     418                    .dwpsn  file "../project.c",line 59,column 9,is_stmt,isa 0
     419 00004e 9392          CMP.W     #1,&caesar+0          ; [] |59| 
MSP430 Assembler PC v21.6.0 Tue Aug  1 23:01:41 2023

Copyright (c) 2003-2018 Texas Instruments Incorporated
C:\Users\eas0035\AppData\Local\Temp\{5BCD9170-B37C-44F2-A877-1E9220DDA60C} PAGE    9

         000050 0000!
     420 000052 2008          JNE       $C$L2                 ; [] |59| 
     421                                                      ; [] |59| 
     422            ;* --------------------------------------------------------------------------*
     423                    .dwpsn  file "../project.c",line 60,column 13,is_stmt,isa 0
     424 000054 403C          MOV.W     #$C$SL7+0,r12         ; [] |60| 
         000056 0000!
     425            $C$DW$37        .dwtag  DW_TAG_TI_branch
     426                    .dwattr $C$DW$37, DW_AT_low_pc(0x00)
     427                    .dwattr $C$DW$37, DW_AT_name("UART_send_string")
     428                    .dwattr $C$DW$37, DW_AT_TI_call
     429            
     430 000058 12B0          CALL      #UART_send_string     ; [] |60| 
         00005a 0000!
     431                                                      ; [] |60| 
     432                    .dwpsn  file "../project.c",line 61,column 13,is_stmt,isa 0
     433 00005c 40B2          MOV.W     #32000,&TBCCR0+0      ; [] |61| 
         00005e 7D00 
         000060 0000!
     434 000062 3C15          JMP       $C$L4                 ; [] 
     435                                                      ; [] 
     436            ;* --------------------------------------------------------------------------*
     437 000064       $C$L2:    
     438                    .dwpsn  file "../project.c",line 62,column 16,is_stmt,isa 0
     439 000064 9392          CMP.W     #1,&substitution+0    ; [] |62| 
         000066 0000!
     440 000068 2008          JNE       $C$L3                 ; [] |62| 
     441                                                      ; [] |62| 
     442            ;* --------------------------------------------------------------------------*
     443                    .dwpsn  file "../project.c",line 63,column 13,is_stmt,isa 0
     444 00006a 403C          MOV.W     #$C$SL8+0,r12         ; [] |63| 
         00006c 0000!
     445            $C$DW$38        .dwtag  DW_TAG_TI_branch
     446                    .dwattr $C$DW$38, DW_AT_low_pc(0x00)
     447                    .dwattr $C$DW$38, DW_AT_name("UART_send_string")
     448                    .dwattr $C$DW$38, DW_AT_TI_call
     449            
     450 00006e 12B0          CALL      #UART_send_string     ; [] |63| 
         000070 0000!
     451                                                      ; [] |63| 
     452                    .dwpsn  file "../project.c",line 64,column 13,is_stmt,isa 0
     453 000072 40B2          MOV.W     #16000,&TBCCR0+0      ; [] |64| 
         000074 3E80 
         000076 0000!
     454 000078 3C0A          JMP       $C$L4                 ; [] 
     455                                                      ; [] 
     456            ;* --------------------------------------------------------------------------*
     457 00007a       $C$L3:    
     458                    .dwpsn  file "../project.c",line 65,column 16,is_stmt,isa 0
     459 00007a 9392          CMP.W     #1,&vigenere+0        ; [] |65| 
         00007c 0000!
     460 00007e 2007          JNE       $C$L4                 ; [] |65| 
     461                                                      ; [] |65| 
     462            ;* --------------------------------------------------------------------------*
     463                    .dwpsn  file "../project.c",line 66,column 13,is_stmt,isa 0
MSP430 Assembler PC v21.6.0 Tue Aug  1 23:01:41 2023

Copyright (c) 2003-2018 Texas Instruments Incorporated
C:\Users\eas0035\AppData\Local\Temp\{5BCD9170-B37C-44F2-A877-1E9220DDA60C} PAGE   10

     464 000080 403C          MOV.W     #$C$SL9+0,r12         ; [] |66| 
         000082 0000!
     465            $C$DW$39        .dwtag  DW_TAG_TI_branch
     466                    .dwattr $C$DW$39, DW_AT_low_pc(0x00)
     467                    .dwattr $C$DW$39, DW_AT_name("UART_send_string")
     468                    .dwattr $C$DW$39, DW_AT_TI_call
     469            
     470 000084 12B0          CALL      #UART_send_string     ; [] |66| 
         000086 0000!
     471                                                      ; [] |66| 
     472                    .dwpsn  file "../project.c",line 67,column 13,is_stmt,isa 0
     473 000088 40B2          MOV.W     #8000,&TBCCR0+0       ; [] |67| 
         00008a 1F40 
         00008c 0000!
     474            ;* --------------------------------------------------------------------------*
     475 00008e       $C$L4:    
     476                    .dwpsn  file "../project.c",line 70,column 9,is_stmt,isa 0
     477 00008e D032          BIS.W     #24,SR
         000090 0018 
     478 000092 4303          NOP      ; [] |70| 
     479                    .dwpsn  file "../project.c",line 56,column 12,is_stmt,isa 0
     480 000094 3FD8          JMP       $C$L1                 ; [] |56| 
     481                                                      ; [] |56| 
     482            ;* --------------------------------------------------------------------------*
     483                    .dwattr $C$DW$27, DW_AT_TI_end_file("../project.c")
     484                    .dwattr $C$DW$27, DW_AT_TI_end_line(0x48)
     485                    .dwattr $C$DW$27, DW_AT_TI_end_column(0x01)
     486                    .dwendentry
     487                    .dwendtag $C$DW$27
     488            
     489 000000               .sect   ".text:setCaesar"
     490                    .clink
     491                    .global setCaesar
     492            
     493            $C$DW$40        .dwtag  DW_TAG_subprogram
     494                    .dwattr $C$DW$40, DW_AT_name("setCaesar")
     495                    .dwattr $C$DW$40, DW_AT_low_pc(setCaesar)
     496                    .dwattr $C$DW$40, DW_AT_high_pc(0x00)
     497                    .dwattr $C$DW$40, DW_AT_TI_symbol_name("setCaesar")
     498                    .dwattr $C$DW$40, DW_AT_external
     499                    .dwattr $C$DW$40, DW_AT_TI_begin_file("../project.c")
     500                    .dwattr $C$DW$40, DW_AT_TI_begin_line(0x4a)
     501                    .dwattr $C$DW$40, DW_AT_TI_begin_column(0x06)
     502                    .dwattr $C$DW$40, DW_AT_decl_file("../project.c")
     503                    .dwattr $C$DW$40, DW_AT_decl_line(0x4a)
     504                    .dwattr $C$DW$40, DW_AT_decl_column(0x06)
     505                    .dwattr $C$DW$40, DW_AT_TI_max_frame_size(0x02)
     506                    .dwpsn  file "../project.c",line 74,column 18,is_stmt,address setCaesar,isa 0
     507            
     508                    .dwfde $C$DW$CIE, setCaesar
     509            
     510            ;*****************************************************************************
     511            ;* FUNCTION NAME: setCaesar                                                  *
     512            ;*                                                                           *
     513            ;*   Regs Modified     : SP                                                  *
MSP430 Assembler PC v21.6.0 Tue Aug  1 23:01:41 2023

Copyright (c) 2003-2018 Texas Instruments Incorporated
C:\Users\eas0035\AppData\Local\Temp\{5BCD9170-B37C-44F2-A877-1E9220DDA60C} PAGE   11

     514            ;*   Regs Used         : SP                                                  *
     515            ;*   Local Frame Size  : 0 Args + 0 Auto + 0 Save = 0 byte                   *
     516            ;*****************************************************************************
     517 000000       setCaesar:
     518            ;* --------------------------------------------------------------------------*
     519                    .dwcfi  cfa_offset, 2
     520                    .dwcfi  save_reg_to_mem, 16, -2
     521                    .dwpsn  file "../project.c",line 75,column 5,is_stmt,isa 0
     522 000000 4392          MOV.W     #1,&caesar+0          ; [] |75| 
         000002 0000!
     523                    .dwpsn  file "../project.c",line 76,column 5,is_stmt,isa 0
     524 000004 4382          MOV.W     #0,&substitution+0    ; [] |76| 
         000006 0000!
     525                    .dwpsn  file "../project.c",line 77,column 5,is_stmt,isa 0
     526 000008 4382          MOV.W     #0,&vigenere+0        ; [] |77| 
         00000a 0000!
     527                    .dwpsn  file "../project.c",line 78,column 1,is_stmt,isa 0
     528            $C$DW$41        .dwtag  DW_TAG_TI_branch
     529                    .dwattr $C$DW$41, DW_AT_low_pc(0x00)
     530                    .dwattr $C$DW$41, DW_AT_TI_return
     531            
     532 00000c 4130          RET       ; [] 
     533                    ; [] 
     534                    .dwattr $C$DW$40, DW_AT_TI_end_file("../project.c")
     535                    .dwattr $C$DW$40, DW_AT_TI_end_line(0x4e)
     536                    .dwattr $C$DW$40, DW_AT_TI_end_column(0x01)
     537                    .dwendentry
     538                    .dwendtag $C$DW$40
     539            
     540 000000               .sect   ".text:setSubstitution"
     541                    .clink
     542                    .global setSubstitution
     543            
     544            $C$DW$42        .dwtag  DW_TAG_subprogram
     545                    .dwattr $C$DW$42, DW_AT_name("setSubstitution")
     546                    .dwattr $C$DW$42, DW_AT_low_pc(setSubstitution)
     547                    .dwattr $C$DW$42, DW_AT_high_pc(0x00)
     548                    .dwattr $C$DW$42, DW_AT_TI_symbol_name("setSubstitution")
     549                    .dwattr $C$DW$42, DW_AT_external
     550                    .dwattr $C$DW$42, DW_AT_TI_begin_file("../project.c")
     551                    .dwattr $C$DW$42, DW_AT_TI_begin_line(0x50)
     552                    .dwattr $C$DW$42, DW_AT_TI_begin_column(0x06)
     553                    .dwattr $C$DW$42, DW_AT_decl_file("../project.c")
     554                    .dwattr $C$DW$42, DW_AT_decl_line(0x50)
     555                    .dwattr $C$DW$42, DW_AT_decl_column(0x06)
     556                    .dwattr $C$DW$42, DW_AT_TI_max_frame_size(0x02)
     557                    .dwpsn  file "../project.c",line 80,column 24,is_stmt,address setSubstitution,isa 0
     558            
     559                    .dwfde $C$DW$CIE, setSubstitution
     560            
     561            ;*****************************************************************************
     562            ;* FUNCTION NAME: setSubstitution                                            *
     563            ;*                                                                           *
     564            ;*   Regs Modified     : SP                                                  *
     565            ;*   Regs Used         : SP                                                  *
MSP430 Assembler PC v21.6.0 Tue Aug  1 23:01:41 2023

Copyright (c) 2003-2018 Texas Instruments Incorporated
C:\Users\eas0035\AppData\Local\Temp\{5BCD9170-B37C-44F2-A877-1E9220DDA60C} PAGE   12

     566            ;*   Local Frame Size  : 0 Args + 0 Auto + 0 Save = 0 byte                   *
     567            ;*****************************************************************************
     568 000000       setSubstitution:
     569            ;* --------------------------------------------------------------------------*
     570                    .dwcfi  cfa_offset, 2
     571                    .dwcfi  save_reg_to_mem, 16, -2
     572                    .dwpsn  file "../project.c",line 81,column 5,is_stmt,isa 0
     573 000000 4382          MOV.W     #0,&caesar+0          ; [] |81| 
         000002 0000!
     574                    .dwpsn  file "../project.c",line 82,column 5,is_stmt,isa 0
     575 000004 4392          MOV.W     #1,&substitution+0    ; [] |82| 
         000006 0000!
     576                    .dwpsn  file "../project.c",line 83,column 5,is_stmt,isa 0
     577 000008 4382          MOV.W     #0,&vigenere+0        ; [] |83| 
         00000a 0000!
     578                    .dwpsn  file "../project.c",line 84,column 1,is_stmt,isa 0
     579            $C$DW$43        .dwtag  DW_TAG_TI_branch
     580                    .dwattr $C$DW$43, DW_AT_low_pc(0x00)
     581                    .dwattr $C$DW$43, DW_AT_TI_return
     582            
     583 00000c 4130          RET       ; [] 
     584                    ; [] 
     585                    .dwattr $C$DW$42, DW_AT_TI_end_file("../project.c")
     586                    .dwattr $C$DW$42, DW_AT_TI_end_line(0x54)
     587                    .dwattr $C$DW$42, DW_AT_TI_end_column(0x01)
     588                    .dwendentry
     589                    .dwendtag $C$DW$42
     590            
     591 000000               .sect   ".text:setVigenere"
     592                    .clink
     593                    .global setVigenere
     594            
     595            $C$DW$44        .dwtag  DW_TAG_subprogram
     596                    .dwattr $C$DW$44, DW_AT_name("setVigenere")
     597                    .dwattr $C$DW$44, DW_AT_low_pc(setVigenere)
     598                    .dwattr $C$DW$44, DW_AT_high_pc(0x00)
     599                    .dwattr $C$DW$44, DW_AT_TI_symbol_name("setVigenere")
     600                    .dwattr $C$DW$44, DW_AT_external
     601                    .dwattr $C$DW$44, DW_AT_TI_begin_file("../project.c")
     602                    .dwattr $C$DW$44, DW_AT_TI_begin_line(0x56)
     603                    .dwattr $C$DW$44, DW_AT_TI_begin_column(0x06)
     604                    .dwattr $C$DW$44, DW_AT_decl_file("../project.c")
     605                    .dwattr $C$DW$44, DW_AT_decl_line(0x56)
     606                    .dwattr $C$DW$44, DW_AT_decl_column(0x06)
     607                    .dwattr $C$DW$44, DW_AT_TI_max_frame_size(0x02)
     608                    .dwpsn  file "../project.c",line 86,column 20,is_stmt,address setVigenere,isa 0
     609            
     610                    .dwfde $C$DW$CIE, setVigenere
     611            
     612            ;*****************************************************************************
     613            ;* FUNCTION NAME: setVigenere                                                *
     614            ;*                                                                           *
     615            ;*   Regs Modified     : SP                                                  *
     616            ;*   Regs Used         : SP                                                  *
     617            ;*   Local Frame Size  : 0 Args + 0 Auto + 0 Save = 0 byte                   *
MSP430 Assembler PC v21.6.0 Tue Aug  1 23:01:41 2023

Copyright (c) 2003-2018 Texas Instruments Incorporated
C:\Users\eas0035\AppData\Local\Temp\{5BCD9170-B37C-44F2-A877-1E9220DDA60C} PAGE   13

     618            ;*****************************************************************************
     619 000000       setVigenere:
     620            ;* --------------------------------------------------------------------------*
     621                    .dwcfi  cfa_offset, 2
     622                    .dwcfi  save_reg_to_mem, 16, -2
     623                    .dwpsn  file "../project.c",line 87,column 5,is_stmt,isa 0
     624 000000 4382          MOV.W     #0,&caesar+0          ; [] |87| 
         000002 0000!
     625                    .dwpsn  file "../project.c",line 88,column 5,is_stmt,isa 0
     626 000004 4382          MOV.W     #0,&substitution+0    ; [] |88| 
         000006 0000!
     627                    .dwpsn  file "../project.c",line 89,column 5,is_stmt,isa 0
     628 000008 4392          MOV.W     #1,&vigenere+0        ; [] |89| 
         00000a 0000!
     629                    .dwpsn  file "../project.c",line 90,column 1,is_stmt,isa 0
     630            $C$DW$45        .dwtag  DW_TAG_TI_branch
     631                    .dwattr $C$DW$45, DW_AT_low_pc(0x00)
     632                    .dwattr $C$DW$45, DW_AT_TI_return
     633            
     634 00000c 4130          RET       ; [] 
     635                    ; [] 
     636                    .dwattr $C$DW$44, DW_AT_TI_end_file("../project.c")
     637                    .dwattr $C$DW$44, DW_AT_TI_end_line(0x5a)
     638                    .dwattr $C$DW$44, DW_AT_TI_end_column(0x01)
     639                    .dwendentry
     640                    .dwendtag $C$DW$44
     641            
     642 000000               .sect   ".text:clearStates"
     643                    .clink
     644                    .global clearStates
     645            
     646            $C$DW$46        .dwtag  DW_TAG_subprogram
     647                    .dwattr $C$DW$46, DW_AT_name("clearStates")
     648                    .dwattr $C$DW$46, DW_AT_low_pc(clearStates)
     649                    .dwattr $C$DW$46, DW_AT_high_pc(0x00)
     650                    .dwattr $C$DW$46, DW_AT_TI_symbol_name("clearStates")
     651                    .dwattr $C$DW$46, DW_AT_external
     652                    .dwattr $C$DW$46, DW_AT_TI_begin_file("../project.c")
     653                    .dwattr $C$DW$46, DW_AT_TI_begin_line(0x5c)
     654                    .dwattr $C$DW$46, DW_AT_TI_begin_column(0x06)
     655                    .dwattr $C$DW$46, DW_AT_decl_file("../project.c")
     656                    .dwattr $C$DW$46, DW_AT_decl_line(0x5c)
     657                    .dwattr $C$DW$46, DW_AT_decl_column(0x06)
     658                    .dwattr $C$DW$46, DW_AT_TI_max_frame_size(0x02)
     659                    .dwpsn  file "../project.c",line 92,column 20,is_stmt,address clearStates,isa 0
     660            
     661                    .dwfde $C$DW$CIE, clearStates
     662            
     663            ;*****************************************************************************
     664            ;* FUNCTION NAME: clearStates                                                *
     665            ;*                                                                           *
     666            ;*   Regs Modified     : SP                                                  *
     667            ;*   Regs Used         : SP                                                  *
     668            ;*   Local Frame Size  : 0 Args + 0 Auto + 0 Save = 0 byte                   *
     669            ;*****************************************************************************
MSP430 Assembler PC v21.6.0 Tue Aug  1 23:01:41 2023

Copyright (c) 2003-2018 Texas Instruments Incorporated
C:\Users\eas0035\AppData\Local\Temp\{5BCD9170-B37C-44F2-A877-1E9220DDA60C} PAGE   14

     670 000000       clearStates:
     671            ;* --------------------------------------------------------------------------*
     672                    .dwcfi  cfa_offset, 2
     673                    .dwcfi  save_reg_to_mem, 16, -2
     674                    .dwpsn  file "../project.c",line 93,column 5,is_stmt,isa 0
     675 000000 4382          MOV.W     #0,&caesar+0          ; [] |93| 
         000002 0000!
     676                    .dwpsn  file "../project.c",line 94,column 5,is_stmt,isa 0
     677 000004 4382          MOV.W     #0,&substitution+0    ; [] |94| 
         000006 0000!
     678                    .dwpsn  file "../project.c",line 95,column 5,is_stmt,isa 0
     679 000008 4382          MOV.W     #0,&vigenere+0        ; [] |95| 
         00000a 0000!
     680                    .dwpsn  file "../project.c",line 96,column 1,is_stmt,isa 0
     681            $C$DW$47        .dwtag  DW_TAG_TI_branch
     682                    .dwattr $C$DW$47, DW_AT_low_pc(0x00)
     683                    .dwattr $C$DW$47, DW_AT_TI_return
     684            
     685 00000c 4130          RET       ; [] 
     686                    ; [] 
     687                    .dwattr $C$DW$46, DW_AT_TI_end_file("../project.c")
     688                    .dwattr $C$DW$46, DW_AT_TI_end_line(0x60)
     689                    .dwattr $C$DW$46, DW_AT_TI_end_column(0x01)
     690                    .dwendentry
     691                    .dwendtag $C$DW$46
     692            
     693 000000               .sect   ".text:UART_setup"
     694                    .clink
     695                    .global UART_setup
     696            
     697            $C$DW$48        .dwtag  DW_TAG_subprogram
     698                    .dwattr $C$DW$48, DW_AT_name("UART_setup")
     699                    .dwattr $C$DW$48, DW_AT_low_pc(UART_setup)
     700                    .dwattr $C$DW$48, DW_AT_high_pc(0x00)
     701                    .dwattr $C$DW$48, DW_AT_TI_symbol_name("UART_setup")
     702                    .dwattr $C$DW$48, DW_AT_external
     703                    .dwattr $C$DW$48, DW_AT_TI_begin_file("../project.c")
     704                    .dwattr $C$DW$48, DW_AT_TI_begin_line(0x62)
     705                    .dwattr $C$DW$48, DW_AT_TI_begin_column(0x06)
     706                    .dwattr $C$DW$48, DW_AT_decl_file("../project.c")
     707                    .dwattr $C$DW$48, DW_AT_decl_line(0x62)
     708                    .dwattr $C$DW$48, DW_AT_decl_column(0x06)
     709                    .dwattr $C$DW$48, DW_AT_TI_max_frame_size(0x02)
     710                    .dwpsn  file "../project.c",line 98,column 19,is_stmt,address UART_setup,isa 0
     711            
     712                    .dwfde $C$DW$CIE, UART_setup
     713            
     714            ;*****************************************************************************
     715            ;* FUNCTION NAME: UART_setup                                                 *
     716            ;*                                                                           *
     717            ;*   Regs Modified     : SP                                                  *
     718            ;*   Regs Used         : SP                                                  *
     719            ;*   Local Frame Size  : 0 Args + 0 Auto + 0 Save = 0 byte                   *
     720            ;*****************************************************************************
     721 000000       UART_setup:
MSP430 Assembler PC v21.6.0 Tue Aug  1 23:01:41 2023

Copyright (c) 2003-2018 Texas Instruments Incorporated
C:\Users\eas0035\AppData\Local\Temp\{5BCD9170-B37C-44F2-A877-1E9220DDA60C} PAGE   15

     722            ;* --------------------------------------------------------------------------*
     723                    .dwcfi  cfa_offset, 2
     724                    .dwcfi  save_reg_to_mem, 16, -2
     725                    .dwpsn  file "../project.c",line 99,column 5,is_stmt,isa 0
     726 000000 D3D2          OR.B      #1,&UCA0CTL1+0        ; [] |99| 
         000002 0000!
     727                    .dwpsn  file "../project.c",line 100,column 5,is_stmt,isa 0
     728 000004 D0F2          OR.B      #128,&UCA0CTL1+0      ; [] |100| 
         000006 0080 
         000008 0000!
     729                    .dwpsn  file "../project.c",line 101,column 5,is_stmt,isa 0
     730 00000a 40F2          MOV.B     #18,&UCA0BR0+0        ; [] |101| 
         00000c 0012 
         00000e 0000!
     731                    .dwpsn  file "../project.c",line 102,column 5,is_stmt,isa 0
     732 000010 43C2          MOV.B     #0,&UCA0BR1+0         ; [] |102| 
         000012 0000!
     733                    .dwpsn  file "../project.c",line 103,column 5,is_stmt,isa 0
     734 000014 D2E2          OR.B      #4,&UCA0MCTL+0        ; [] |103| 
         000016 0000!
     735                    .dwpsn  file "../project.c",line 104,column 5,is_stmt,isa 0
     736 000018 C3D2          BIC.B     #1,&UCA0CTL1+0        ; [] |104| 
         00001a 0000!
     737                    .dwpsn  file "../project.c",line 105,column 5,is_stmt,isa 0
     738 00001c D3D2          OR.B      #1,&IE2+0             ; [] |105| 
         00001e 0000!
     739                    .dwpsn  file "../project.c",line 106,column 1,is_stmt,isa 0
     740            $C$DW$49        .dwtag  DW_TAG_TI_branch
     741                    .dwattr $C$DW$49, DW_AT_low_pc(0x00)
     742                    .dwattr $C$DW$49, DW_AT_TI_return
     743            
     744 000020 4130          RET       ; [] 
     745                    ; [] 
     746                    .dwattr $C$DW$48, DW_AT_TI_end_file("../project.c")
     747                    .dwattr $C$DW$48, DW_AT_TI_end_line(0x6a)
     748                    .dwattr $C$DW$48, DW_AT_TI_end_column(0x01)
     749                    .dwendentry
     750                    .dwendtag $C$DW$48
     751            
     752 000000               .sect   ".text:switch_setup"
     753                    .clink
     754                    .global switch_setup
     755            
     756            $C$DW$50        .dwtag  DW_TAG_subprogram
     757                    .dwattr $C$DW$50, DW_AT_name("switch_setup")
     758                    .dwattr $C$DW$50, DW_AT_low_pc(switch_setup)
     759                    .dwattr $C$DW$50, DW_AT_high_pc(0x00)
     760                    .dwattr $C$DW$50, DW_AT_TI_symbol_name("switch_setup")
     761                    .dwattr $C$DW$50, DW_AT_external
     762                    .dwattr $C$DW$50, DW_AT_TI_begin_file("../project.c")
     763                    .dwattr $C$DW$50, DW_AT_TI_begin_line(0x6d)
     764                    .dwattr $C$DW$50, DW_AT_TI_begin_column(0x06)
     765                    .dwattr $C$DW$50, DW_AT_decl_file("../project.c")
     766                    .dwattr $C$DW$50, DW_AT_decl_line(0x6d)
     767                    .dwattr $C$DW$50, DW_AT_decl_column(0x06)
MSP430 Assembler PC v21.6.0 Tue Aug  1 23:01:41 2023

Copyright (c) 2003-2018 Texas Instruments Incorporated
C:\Users\eas0035\AppData\Local\Temp\{5BCD9170-B37C-44F2-A877-1E9220DDA60C} PAGE   16

     768                    .dwattr $C$DW$50, DW_AT_TI_max_frame_size(0x02)
     769                    .dwpsn  file "../project.c",line 109,column 21,is_stmt,address switch_setup,isa 0
     770            
     771                    .dwfde $C$DW$CIE, switch_setup
     772            
     773            ;*****************************************************************************
     774            ;* FUNCTION NAME: switch_setup                                               *
     775            ;*                                                                           *
     776            ;*   Regs Modified     : SP                                                  *
     777            ;*   Regs Used         : SP                                                  *
     778            ;*   Local Frame Size  : 0 Args + 0 Auto + 0 Save = 0 byte                   *
     779            ;*****************************************************************************
     780 000000       switch_setup:
     781            ;* --------------------------------------------------------------------------*
     782                    .dwcfi  cfa_offset, 2
     783                    .dwcfi  save_reg_to_mem, 16, -2
     784                    .dwpsn  file "../project.c",line 110,column 5,is_stmt,isa 0
     785 000000 D3D2          OR.B      #1,&P1IE+0            ; [] |110| 
         000002 0000!
     786                    .dwpsn  file "../project.c",line 111,column 5,is_stmt,isa 0
     787 000004 D3D2          OR.B      #1,&P1IES+0           ; [] |111| 
         000006 0000!
     788                    .dwpsn  file "../project.c",line 112,column 5,is_stmt,isa 0
     789 000008 C3D2          BIC.B     #1,&P1IFG+0           ; [] |112| 
         00000a 0000!
     790                    .dwpsn  file "../project.c",line 113,column 1,is_stmt,isa 0
     791            $C$DW$51        .dwtag  DW_TAG_TI_branch
     792                    .dwattr $C$DW$51, DW_AT_low_pc(0x00)
     793                    .dwattr $C$DW$51, DW_AT_TI_return
     794            
     795 00000c 4130          RET       ; [] 
     796                    ; [] 
     797                    .dwattr $C$DW$50, DW_AT_TI_end_file("../project.c")
     798                    .dwattr $C$DW$50, DW_AT_TI_end_line(0x71)
     799                    .dwattr $C$DW$50, DW_AT_TI_end_column(0x01)
     800                    .dwendentry
     801                    .dwendtag $C$DW$50
     802            
     803 000000               .sect   ".text:timerB_setup"
     804                    .clink
     805                    .global timerB_setup
     806            
     807            $C$DW$52        .dwtag  DW_TAG_subprogram
     808                    .dwattr $C$DW$52, DW_AT_name("timerB_setup")
     809                    .dwattr $C$DW$52, DW_AT_low_pc(timerB_setup)
     810                    .dwattr $C$DW$52, DW_AT_high_pc(0x00)
     811                    .dwattr $C$DW$52, DW_AT_TI_symbol_name("timerB_setup")
     812                    .dwattr $C$DW$52, DW_AT_external
     813                    .dwattr $C$DW$52, DW_AT_TI_begin_file("../project.c")
     814                    .dwattr $C$DW$52, DW_AT_TI_begin_line(0x73)
     815                    .dwattr $C$DW$52, DW_AT_TI_begin_column(0x06)
     816                    .dwattr $C$DW$52, DW_AT_decl_file("../project.c")
     817                    .dwattr $C$DW$52, DW_AT_decl_line(0x73)
     818                    .dwattr $C$DW$52, DW_AT_decl_column(0x06)
     819                    .dwattr $C$DW$52, DW_AT_TI_max_frame_size(0x02)
MSP430 Assembler PC v21.6.0 Tue Aug  1 23:01:41 2023

Copyright (c) 2003-2018 Texas Instruments Incorporated
C:\Users\eas0035\AppData\Local\Temp\{5BCD9170-B37C-44F2-A877-1E9220DDA60C} PAGE   17

     820                    .dwpsn  file "../project.c",line 115,column 21,is_stmt,address timerB_setup,isa 0
     821            
     822                    .dwfde $C$DW$CIE, timerB_setup
     823            
     824            ;*****************************************************************************
     825            ;* FUNCTION NAME: timerB_setup                                               *
     826            ;*                                                                           *
     827            ;*   Regs Modified     : SP                                                  *
     828            ;*   Regs Used         : SP                                                  *
     829            ;*   Local Frame Size  : 0 Args + 0 Auto + 0 Save = 0 byte                   *
     830            ;*****************************************************************************
     831 000000       timerB_setup:
     832            ;* --------------------------------------------------------------------------*
     833                    .dwcfi  cfa_offset, 2
     834                    .dwcfi  save_reg_to_mem, 16, -2
     835                    .dwpsn  file "../project.c",line 116,column 5,is_stmt,isa 0
     836 000000 40B2          MOV.W     #128,&TBCCTL0+0       ; [] |116| 
         000002 0080 
         000004 0000!
     837                    .dwpsn  file "../project.c",line 117,column 5,is_stmt,isa 0
     838 000006 40B2          MOV.W     #272,&TBCTL+0         ; [] |117| 
         000008 0110 
         00000a 0000!
     839                    .dwpsn  file "../project.c",line 118,column 5,is_stmt,isa 0
     840 00000c 40B2          MOV.W     #32767,&TBCCR0+0      ; [] |118| 
         00000e 7FFF 
         000010 0000!
     841                    .dwpsn  file "../project.c",line 119,column 1,is_stmt,isa 0
     842            $C$DW$53        .dwtag  DW_TAG_TI_branch
     843                    .dwattr $C$DW$53, DW_AT_low_pc(0x00)
     844                    .dwattr $C$DW$53, DW_AT_TI_return
     845            
     846 000012 4130          RET       ; [] 
     847                    ; [] 
     848                    .dwattr $C$DW$52, DW_AT_TI_end_file("../project.c")
     849                    .dwattr $C$DW$52, DW_AT_TI_end_line(0x77)
     850                    .dwattr $C$DW$52, DW_AT_TI_end_column(0x01)
     851                    .dwendentry
     852                    .dwendtag $C$DW$52
     853            
     854 000000               .sect   ".text:UART_send_character"
     855                    .clink
     856                    .global UART_send_character
     857            
     858            $C$DW$54        .dwtag  DW_TAG_subprogram
     859                    .dwattr $C$DW$54, DW_AT_name("UART_send_character")
     860                    .dwattr $C$DW$54, DW_AT_low_pc(UART_send_character)
     861                    .dwattr $C$DW$54, DW_AT_high_pc(0x00)
     862                    .dwattr $C$DW$54, DW_AT_TI_symbol_name("UART_send_character")
     863                    .dwattr $C$DW$54, DW_AT_external
     864                    .dwattr $C$DW$54, DW_AT_TI_begin_file("../project.c")
     865                    .dwattr $C$DW$54, DW_AT_TI_begin_line(0x79)
     866                    .dwattr $C$DW$54, DW_AT_TI_begin_column(0x06)
     867                    .dwattr $C$DW$54, DW_AT_decl_file("../project.c")
     868                    .dwattr $C$DW$54, DW_AT_decl_line(0x79)
MSP430 Assembler PC v21.6.0 Tue Aug  1 23:01:41 2023

Copyright (c) 2003-2018 Texas Instruments Incorporated
C:\Users\eas0035\AppData\Local\Temp\{5BCD9170-B37C-44F2-A877-1E9220DDA60C} PAGE   18

     869                    .dwattr $C$DW$54, DW_AT_decl_column(0x06)
     870                    .dwattr $C$DW$54, DW_AT_TI_max_frame_size(0x04)
     871                    .dwpsn  file "../project.c",line 121,column 40,is_stmt,address UART_send_character,isa 0
     872            
     873                    .dwfde $C$DW$CIE, UART_send_character
     874            $C$DW$55        .dwtag  DW_TAG_formal_parameter
     875                    .dwattr $C$DW$55, DW_AT_name("my_char")
     876                    .dwattr $C$DW$55, DW_AT_TI_symbol_name("my_char")
     877                    .dwattr $C$DW$55, DW_AT_type(*$C$DW$T$6)
     878                    .dwattr $C$DW$55, DW_AT_location[DW_OP_reg12]
     879            
     880            
     881            ;*****************************************************************************
     882            ;* FUNCTION NAME: UART_send_character                                        *
     883            ;*                                                                           *
     884            ;*   Regs Modified     : SP,SR                                               *
     885            ;*   Regs Used         : SP,SR,r12                                           *
     886            ;*   Local Frame Size  : 0 Args + 2 Auto + 0 Save = 2 byte                   *
     887            ;*****************************************************************************
     888 000000       UART_send_character:
     889            ;* --------------------------------------------------------------------------*
     890                    .dwcfi  cfa_offset, 2
     891                    .dwcfi  save_reg_to_mem, 16, -2
     892 000000 8321          SUB.W     #2,SP                 ; [] 
     893                    .dwcfi  cfa_offset, 4
     894            $C$DW$56        .dwtag  DW_TAG_variable
     895                    .dwattr $C$DW$56, DW_AT_name("my_char")
     896                    .dwattr $C$DW$56, DW_AT_TI_symbol_name("my_char")
     897                    .dwattr $C$DW$56, DW_AT_type(*$C$DW$T$6)
     898                    .dwattr $C$DW$56, DW_AT_location[DW_OP_breg1 0]
     899            
     900 000002 4CC1          MOV.B     r12,0(SP)             ; [] |121| 
         000004 0000 
     901                    .dwpsn  file "../project.c",line 122,column 5,is_stmt,isa 0
     902            ;* --------------------------------------------------------------------------*
     903            ;*   BEGIN LOOP $C$L5
     904            ;*
     905            ;*   Loop source line                : 122
     906            ;*   Loop closing brace source line  : 122
     907            ;*   Known Minimum Trip Count        : 1
     908            ;*   Known Maximum Trip Count        : 4294967295
     909            ;*   Known Max Trip Count Factor     : 1
     910            ;* --------------------------------------------------------------------------*
     911 000006       $C$L5:    
     912                    .dwpsn  file "../project.c",line 122,column 12,is_stmt,isa 0
     913 000006 B3E2          BIT.B     #2,&IFG2+0            ; [] |122| 
         000008 0000!
     914 00000a 27FD          JEQ       $C$L5                 ; [] |122| 
     915                                                      ; [] |122| 
     916            ;* --------------------------------------------------------------------------*
     917                    .dwpsn  file "../project.c",line 123,column 5,is_stmt,isa 0
     918 00000c 41E2          MOV.B     0(SP),&UCA0TXBUF+0    ; [] |123| 
         00000e 0000!
     919                    .dwpsn  file "../project.c",line 124,column 1,is_stmt,isa 0
     920 000010 5321          ADD.W     #2,SP                 ; [] 
MSP430 Assembler PC v21.6.0 Tue Aug  1 23:01:41 2023

Copyright (c) 2003-2018 Texas Instruments Incorporated
C:\Users\eas0035\AppData\Local\Temp\{5BCD9170-B37C-44F2-A877-1E9220DDA60C} PAGE   19

     921                    .dwcfi  cfa_offset, 2
     922            $C$DW$57        .dwtag  DW_TAG_TI_branch
     923                    .dwattr $C$DW$57, DW_AT_low_pc(0x00)
     924                    .dwattr $C$DW$57, DW_AT_TI_return
     925            
     926 000012 4130          RET       ; [] 
     927                    ; [] 
     928                    .dwattr $C$DW$54, DW_AT_TI_end_file("../project.c")
     929                    .dwattr $C$DW$54, DW_AT_TI_end_line(0x7c)
     930                    .dwattr $C$DW$54, DW_AT_TI_end_column(0x01)
     931                    .dwendentry
     932                    .dwendtag $C$DW$54
     933            
     934 000000               .sect   ".text:UART_send_string"
     935                    .clink
     936                    .global UART_send_string
     937            
     938            $C$DW$58        .dwtag  DW_TAG_subprogram
     939                    .dwattr $C$DW$58, DW_AT_name("UART_send_string")
     940                    .dwattr $C$DW$58, DW_AT_low_pc(UART_send_string)
     941                    .dwattr $C$DW$58, DW_AT_high_pc(0x00)
     942                    .dwattr $C$DW$58, DW_AT_TI_symbol_name("UART_send_string")
     943                    .dwattr $C$DW$58, DW_AT_external
     944                    .dwattr $C$DW$58, DW_AT_TI_begin_file("../project.c")
     945                    .dwattr $C$DW$58, DW_AT_TI_begin_line(0x7f)
     946                    .dwattr $C$DW$58, DW_AT_TI_begin_column(0x06)
     947                    .dwattr $C$DW$58, DW_AT_decl_file("../project.c")
     948                    .dwattr $C$DW$58, DW_AT_decl_line(0x7f)
     949                    .dwattr $C$DW$58, DW_AT_decl_column(0x06)
     950                    .dwattr $C$DW$58, DW_AT_TI_max_frame_size(0x06)
     951                    .dwpsn  file "../project.c",line 127,column 37,is_stmt,address UART_send_string,isa 0
     952            
     953                    .dwfde $C$DW$CIE, UART_send_string
     954            $C$DW$59        .dwtag  DW_TAG_formal_parameter
     955                    .dwattr $C$DW$59, DW_AT_name("string")
     956                    .dwattr $C$DW$59, DW_AT_TI_symbol_name("string")
     957                    .dwattr $C$DW$59, DW_AT_type(*$C$DW$T$33)
     958                    .dwattr $C$DW$59, DW_AT_location[DW_OP_reg12]
     959            
     960            
     961            ;*****************************************************************************
     962            ;* FUNCTION NAME: UART_send_string                                           *
     963            ;*                                                                           *
     964            ;*   Regs Modified     : SP,SR,r11,r12,r13,r14,r15                           *
     965            ;*   Regs Used         : SP,SR,r11,r12,r13,r14,r15                           *
     966            ;*   Local Frame Size  : 0 Args + 4 Auto + 0 Save = 4 byte                   *
     967            ;*****************************************************************************
     968 000000       UART_send_string:
     969            ;* --------------------------------------------------------------------------*
     970                    .dwcfi  cfa_offset, 2
     971                    .dwcfi  save_reg_to_mem, 16, -2
     972 000000 8221          SUB.W     #4,SP                 ; [] 
     973                    .dwcfi  cfa_offset, 6
     974            $C$DW$60        .dwtag  DW_TAG_variable
     975                    .dwattr $C$DW$60, DW_AT_name("string")
MSP430 Assembler PC v21.6.0 Tue Aug  1 23:01:41 2023

Copyright (c) 2003-2018 Texas Instruments Incorporated
C:\Users\eas0035\AppData\Local\Temp\{5BCD9170-B37C-44F2-A877-1E9220DDA60C} PAGE   20

     976                    .dwattr $C$DW$60, DW_AT_TI_symbol_name("string")
     977                    .dwattr $C$DW$60, DW_AT_type(*$C$DW$T$33)
     978                    .dwattr $C$DW$60, DW_AT_location[DW_OP_breg1 0]
     979            
     980            $C$DW$61        .dwtag  DW_TAG_variable
     981                    .dwattr $C$DW$61, DW_AT_name("i")
     982                    .dwattr $C$DW$61, DW_AT_TI_symbol_name("i")
     983                    .dwattr $C$DW$61, DW_AT_type(*$C$DW$T$10)
     984                    .dwattr $C$DW$61, DW_AT_location[DW_OP_breg1 2]
     985            
     986 000002 4C81          MOV.W     r12,0(SP)             ; [] |127| 
         000004 0000 
     987                    .dwpsn  file "../project.c",line 129,column 10,is_stmt,isa 0
     988 000006 4381          MOV.W     #0,2(SP)              ; [] |129| 
         000008 0002 
     989 00000a 3C08          JMP       $C$L7                 ; [] |129| 
     990                                                      ; [] |129| 
     991            ;* --------------------------------------------------------------------------*
     992 00000c       $C$L6:    
     993                    .dwpsn  file "../project.c",line 130,column 9,is_stmt,isa 0
     994 00000c 411F          MOV.W     2(SP),r15             ; [] |130| 
         00000e 0002 
     995 000010 512F          ADD.W     0(SP),r15             ; [] |130| 
     996 000012 4F6C          MOV.B     @r15,r12              ; [] |130| 
     997            $C$DW$62        .dwtag  DW_TAG_TI_branch
     998                    .dwattr $C$DW$62, DW_AT_low_pc(0x00)
     999                    .dwattr $C$DW$62, DW_AT_name("UART_send_character")
    1000                    .dwattr $C$DW$62, DW_AT_TI_call
    1001            
    1002 000014 12B0          CALL      #UART_send_character  ; [] |130| 
         000016 0000!
    1003                                                      ; [] |130| 
    1004                    .dwpsn  file "../project.c",line 129,column 37,is_stmt,isa 0
    1005 000018 5391          ADD.W     #1,2(SP)              ; [] |129| 
         00001a 0002 
    1006            ;* --------------------------------------------------------------------------*
    1007            ;*   BEGIN LOOP $C$L7
    1008            ;* --------------------------------------------------------------------------*
    1009 00001c       $C$L7:    
    1010                    .dwpsn  file "../project.c",line 129,column 17,is_stmt,isa 0
    1011 00001c 412C          MOV.W     0(SP),r12             ; [] |129| 
    1012            $C$DW$63        .dwtag  DW_TAG_TI_branch
    1013                    .dwattr $C$DW$63, DW_AT_low_pc(0x00)
    1014                    .dwattr $C$DW$63, DW_AT_name("strlen")
    1015                    .dwattr $C$DW$63, DW_AT_TI_call
    1016            
    1017 00001e 12B0          CALL      #strlen               ; [] |129| 
         000020 0000!
    1018                                                      ; [] |129| 
    1019 000022 9C81          CMP.W     r12,2(SP)             ; [] |129| 
         000024 0002 
    1020 000026 2BF2          JLO       $C$L6                 ; [] |129| 
    1021                                                      ; [] |129| 
    1022            ;* --------------------------------------------------------------------------*
    1023                    .dwpsn  file "../project.c",line 132,column 1,is_stmt,isa 0
MSP430 Assembler PC v21.6.0 Tue Aug  1 23:01:41 2023

Copyright (c) 2003-2018 Texas Instruments Incorporated
C:\Users\eas0035\AppData\Local\Temp\{5BCD9170-B37C-44F2-A877-1E9220DDA60C} PAGE   21

    1024 000028 5221          ADD.W     #4,SP                 ; [] 
    1025                    .dwcfi  cfa_offset, 2
    1026            $C$DW$64        .dwtag  DW_TAG_TI_branch
    1027                    .dwattr $C$DW$64, DW_AT_low_pc(0x00)
    1028                    .dwattr $C$DW$64, DW_AT_TI_return
    1029            
    1030 00002a 4130          RET       ; [] 
    1031                    ; [] 
    1032                    .dwattr $C$DW$58, DW_AT_TI_end_file("../project.c")
    1033                    .dwattr $C$DW$58, DW_AT_TI_end_line(0x84)
    1034                    .dwattr $C$DW$58, DW_AT_TI_end_column(0x01)
    1035                    .dwendentry
    1036                    .dwendtag $C$DW$58
    1037            
    1038 000000               .sect   ".text:UART_get_word"
    1039                    .clink
    1040                    .global UART_get_word
    1041            
    1042            $C$DW$65        .dwtag  DW_TAG_subprogram
    1043                    .dwattr $C$DW$65, DW_AT_name("UART_get_word")
    1044                    .dwattr $C$DW$65, DW_AT_low_pc(UART_get_word)
    1045                    .dwattr $C$DW$65, DW_AT_high_pc(0x00)
    1046                    .dwattr $C$DW$65, DW_AT_TI_symbol_name("UART_get_word")
    1047                    .dwattr $C$DW$65, DW_AT_external
    1048                    .dwattr $C$DW$65, DW_AT_TI_begin_file("../project.c")
    1049                    .dwattr $C$DW$65, DW_AT_TI_begin_line(0x87)
    1050                    .dwattr $C$DW$65, DW_AT_TI_begin_column(0x06)
    1051                    .dwattr $C$DW$65, DW_AT_decl_file("../project.c")
    1052                    .dwattr $C$DW$65, DW_AT_decl_line(0x87)
    1053                    .dwattr $C$DW$65, DW_AT_decl_column(0x06)
    1054                    .dwattr $C$DW$65, DW_AT_TI_max_frame_size(0x0a)
    1055                    .dwpsn  file "../project.c",line 136,column 1,is_stmt,address UART_get_word,isa 0
    1056            
    1057                    .dwfde $C$DW$CIE, UART_get_word
    1058            $C$DW$66        .dwtag  DW_TAG_formal_parameter
    1059                    .dwattr $C$DW$66, DW_AT_name("buffer")
    1060                    .dwattr $C$DW$66, DW_AT_TI_symbol_name("buffer")
    1061                    .dwattr $C$DW$66, DW_AT_type(*$C$DW$T$33)
    1062                    .dwattr $C$DW$66, DW_AT_location[DW_OP_reg12]
    1063            
    1064            $C$DW$67        .dwtag  DW_TAG_formal_parameter
    1065                    .dwattr $C$DW$67, DW_AT_name("limit")
    1066                    .dwattr $C$DW$67, DW_AT_TI_symbol_name("limit")
    1067                    .dwattr $C$DW$67, DW_AT_type(*$C$DW$T$10)
    1068                    .dwattr $C$DW$67, DW_AT_location[DW_OP_reg13]
    1069            
    1070            
    1071            ;*****************************************************************************
    1072            ;* FUNCTION NAME: UART_get_word                                              *
    1073            ;*                                                                           *
    1074            ;*   Regs Modified     : SP,SR,r12,r15                                       *
    1075            ;*   Regs Used         : SP,SR,r12,r13,r15                                   *
    1076            ;*   Local Frame Size  : 0 Args + 8 Auto + 0 Save = 8 byte                   *
    1077            ;*****************************************************************************
    1078 000000       UART_get_word:
MSP430 Assembler PC v21.6.0 Tue Aug  1 23:01:41 2023

Copyright (c) 2003-2018 Texas Instruments Incorporated
C:\Users\eas0035\AppData\Local\Temp\{5BCD9170-B37C-44F2-A877-1E9220DDA60C} PAGE   22

    1079            ;* --------------------------------------------------------------------------*
    1080                    .dwcfi  cfa_offset, 2
    1081                    .dwcfi  save_reg_to_mem, 16, -2
    1082 000000 8231          SUB.W     #8,SP                 ; [] 
    1083                    .dwcfi  cfa_offset, 10
    1084            $C$DW$68        .dwtag  DW_TAG_variable
    1085                    .dwattr $C$DW$68, DW_AT_name("buffer")
    1086                    .dwattr $C$DW$68, DW_AT_TI_symbol_name("buffer")
    1087                    .dwattr $C$DW$68, DW_AT_type(*$C$DW$T$33)
    1088                    .dwattr $C$DW$68, DW_AT_location[DW_OP_breg1 0]
    1089            
    1090            $C$DW$69        .dwtag  DW_TAG_variable
    1091                    .dwattr $C$DW$69, DW_AT_name("limit")
    1092                    .dwattr $C$DW$69, DW_AT_TI_symbol_name("limit")
    1093                    .dwattr $C$DW$69, DW_AT_type(*$C$DW$T$10)
    1094                    .dwattr $C$DW$69, DW_AT_location[DW_OP_breg1 2]
    1095            
    1096            $C$DW$70        .dwtag  DW_TAG_variable
    1097                    .dwattr $C$DW$70, DW_AT_name("i")
    1098                    .dwattr $C$DW$70, DW_AT_TI_symbol_name("i")
    1099                    .dwattr $C$DW$70, DW_AT_type(*$C$DW$T$10)
    1100                    .dwattr $C$DW$70, DW_AT_location[DW_OP_breg1 4]
    1101            
    1102            $C$DW$71        .dwtag  DW_TAG_variable
    1103                    .dwattr $C$DW$71, DW_AT_name("received_char")
    1104                    .dwattr $C$DW$71, DW_AT_TI_symbol_name("received_char")
    1105                    .dwattr $C$DW$71, DW_AT_type(*$C$DW$T$6)
    1106                    .dwattr $C$DW$71, DW_AT_location[DW_OP_breg1 6]
    1107            
    1108 000002 4D81          MOV.W     r13,2(SP)             ; [] |136| 
         000004 0002 
    1109 000006 4C81          MOV.W     r12,0(SP)             ; [] |136| 
         000008 0000 
    1110                    .dwpsn  file "../project.c",line 137,column 11,is_stmt,isa 0
    1111 00000a 4381          MOV.W     #0,4(SP)              ; [] |137| 
         00000c 0004 
    1112                    .dwpsn  file "../project.c",line 140,column 5,is_stmt,isa 0
    1113 00000e 3C16          JMP       $C$L9                 ; [] |140| 
    1114                                                      ; [] |140| 
    1115            ;* --------------------------------------------------------------------------*
    1116            ;* --------------------------------------------------------------------------*
    1117            ;*   BEGIN LOOP $C$L8
    1118            ;*
    1119            ;*   Loop source line                : 141
    1120            ;*   Loop closing brace source line  : 141
    1121            ;*   Known Minimum Trip Count        : 1
    1122            ;*   Known Maximum Trip Count        : 4294967295
    1123            ;*   Known Max Trip Count Factor     : 1
    1124            ;* --------------------------------------------------------------------------*
    1125 000010       $C$L8:    
    1126                    .dwpsn  file "../project.c",line 141,column 16,is_stmt,isa 0
    1127 000010 B3D2          BIT.B     #1,&IFG2+0            ; [] |141| 
         000012 0000!
    1128 000014 27FD          JEQ       $C$L8                 ; [] |141| 
    1129                                                      ; [] |141| 
MSP430 Assembler PC v21.6.0 Tue Aug  1 23:01:41 2023

Copyright (c) 2003-2018 Texas Instruments Incorporated
C:\Users\eas0035\AppData\Local\Temp\{5BCD9170-B37C-44F2-A877-1E9220DDA60C} PAGE   23

    1130            ;* --------------------------------------------------------------------------*
    1131                    .dwpsn  file "../project.c",line 142,column 9,is_stmt,isa 0
    1132 000016 42D1          MOV.B     &UCA0RXBUF+0,6(SP)    ; [] |142| 
         000018 0000!
         00001a 0006 
    1133                    .dwpsn  file "../project.c",line 143,column 9,is_stmt,isa 0
    1134 00001c 415C          MOV.B     6(SP),r12             ; [] |143| 
         00001e 0006 
    1135            $C$DW$72        .dwtag  DW_TAG_TI_branch
    1136                    .dwattr $C$DW$72, DW_AT_low_pc(0x00)
    1137                    .dwattr $C$DW$72, DW_AT_name("UART_send_character")
    1138                    .dwattr $C$DW$72, DW_AT_TI_call
    1139            
    1140 000020 12B0          CALL      #UART_send_character  ; [] |143| 
         000022 0000!
    1141                                                      ; [] |143| 
    1142                    .dwpsn  file "../project.c",line 145,column 9,is_stmt,isa 0
    1143 000024 90F1          CMP.B     #13,6(SP)             ; [] |145| 
         000026 000D 
         000028 0006 
    1144 00002a 240E          JEQ       $C$L10                ; [] |145| 
    1145                                                      ; [] |145| 
    1146            ;* --------------------------------------------------------------------------*
    1147                    .dwpsn  file "../project.c",line 146,column 13,is_stmt,isa 0
    1148                    .dwpsn  file "../project.c",line 148,column 9,is_stmt,isa 0
    1149 00002c 411F          MOV.W     4(SP),r15             ; [] |148| 
         00002e 0004 
    1150 000030 512F          ADD.W     0(SP),r15             ; [] |148| 
    1151 000032 41DF          MOV.B     6(SP),0(r15)          ; [] |148| 
         000034 0006 
         000036 0000 
    1152                    .dwpsn  file "../project.c",line 149,column 9,is_stmt,isa 0
    1153 000038 5391          ADD.W     #1,4(SP)              ; [] |149| 
         00003a 0004 
    1154            ;* --------------------------------------------------------------------------*
    1155            ;*   BEGIN LOOP $C$L9
    1156            ;* --------------------------------------------------------------------------*
    1157 00003c       $C$L9:    
    1158                    .dwpsn  file "../project.c",line 140,column 12,is_stmt,isa 0
    1159 00003c 411F          MOV.W     2(SP),r15             ; [] |140| 
         00003e 0002 
    1160 000040 831F          SUB.W     #1,r15                ; [] |140| 
    1161 000042 9F81          CMP.W     r15,4(SP)             ; [] |140| 
         000044 0004 
    1162 000046 3BE4          JL        $C$L8                 ; [] |140| 
    1163                                                      ; [] |140| 
    1164            ;* --------------------------------------------------------------------------*
    1165 000048       $C$L10:    
    1166                    .dwpsn  file "../project.c",line 152,column 5,is_stmt,isa 0
    1167 000048 411F          MOV.W     4(SP),r15             ; [] |152| 
         00004a 0004 
    1168 00004c 512F          ADD.W     0(SP),r15             ; [] |152| 
    1169 00004e 43CF          MOV.B     #0,0(r15)             ; [] |152| 
         000050 0000 
    1170                    .dwpsn  file "../project.c",line 153,column 1,is_stmt,isa 0
MSP430 Assembler PC v21.6.0 Tue Aug  1 23:01:41 2023

Copyright (c) 2003-2018 Texas Instruments Incorporated
C:\Users\eas0035\AppData\Local\Temp\{5BCD9170-B37C-44F2-A877-1E9220DDA60C} PAGE   24

    1171 000052 5231          ADD.W     #8,SP                 ; [] 
    1172                    .dwcfi  cfa_offset, 2
    1173            $C$DW$73        .dwtag  DW_TAG_TI_branch
    1174                    .dwattr $C$DW$73, DW_AT_low_pc(0x00)
    1175                    .dwattr $C$DW$73, DW_AT_TI_return
    1176            
    1177 000054 4130          RET       ; [] 
    1178                    ; [] 
    1179                    .dwattr $C$DW$65, DW_AT_TI_end_file("../project.c")
    1180                    .dwattr $C$DW$65, DW_AT_TI_end_line(0x99)
    1181                    .dwattr $C$DW$65, DW_AT_TI_end_column(0x01)
    1182                    .dwendentry
    1183                    .dwendtag $C$DW$65
    1184            
    1185 000000               .sect   ".text:Port1_ISR"
    1186                    .clink
    1187                    .global Port1_ISR
    1188            
    1189            $C$DW$74        .dwtag  DW_TAG_subprogram
    1190                    .dwattr $C$DW$74, DW_AT_name("Port1_ISR")
    1191                    .dwattr $C$DW$74, DW_AT_low_pc(Port1_ISR)
    1192                    .dwattr $C$DW$74, DW_AT_high_pc(0x00)
    1193                    .dwattr $C$DW$74, DW_AT_TI_symbol_name("Port1_ISR")
    1194                    .dwattr $C$DW$74, DW_AT_external
    1195                    .dwattr $C$DW$74, DW_AT_TI_begin_file("../project.c")
    1196                    .dwattr $C$DW$74, DW_AT_TI_begin_line(0x9c)
    1197                    .dwattr $C$DW$74, DW_AT_TI_begin_column(0x12)
    1198                    .dwattr $C$DW$74, DW_AT_decl_file("../project.c")
    1199                    .dwattr $C$DW$74, DW_AT_decl_line(0x9c)
    1200                    .dwattr $C$DW$74, DW_AT_decl_column(0x12)
    1201                    .dwattr $C$DW$74, DW_AT_TI_interrupt
    1202                    .dwattr $C$DW$74, DW_AT_TI_max_frame_size(0x0e)
    1203                    .dwpsn  file "../project.c",line 156,column 34,is_stmt,address Port1_ISR,isa 0
    1204            
    1205                    .dwfde $C$DW$CIE, Port1_ISR
    1206            
    1207            ;*****************************************************************************
    1208            ;* FUNCTION NAME: Port1_ISR                                                  *
    1209            ;*                                                                           *
    1210            ;*   Regs Modified     : SP,SR,r11,r12,r13,r14,r15                           *
    1211            ;*   Regs Used         : SP,SR,r11,r12,r13,r14,r15                           *
    1212            ;*   Local Frame Size  : 2 Args + 0 Auto + 10 Save = 12 byte                 *
    1213            ;*****************************************************************************
    1214 000000       Port1_ISR:
    1215            ;* --------------------------------------------------------------------------*
    1216                    .dwcfi  cfa_offset, 2
    1217                    .dwcfi  save_reg_to_mem, 16, -2
    1218 000000 120F          PUSH.W    r15                   ; [] 
    1219                    .dwcfi  cfa_offset, 4
    1220                    .dwcfi  save_reg_to_mem, 15, -4
    1221 000002 120E          PUSH.W    r14                   ; [] 
    1222                    .dwcfi  cfa_offset, 6
    1223                    .dwcfi  save_reg_to_mem, 14, -6
    1224 000004 120D          PUSH.W    r13                   ; [] 
    1225                    .dwcfi  cfa_offset, 8
MSP430 Assembler PC v21.6.0 Tue Aug  1 23:01:41 2023

Copyright (c) 2003-2018 Texas Instruments Incorporated
C:\Users\eas0035\AppData\Local\Temp\{5BCD9170-B37C-44F2-A877-1E9220DDA60C} PAGE   25

    1226                    .dwcfi  save_reg_to_mem, 13, -8
    1227 000006 120C          PUSH.W    r12                   ; [] 
    1228                    .dwcfi  cfa_offset, 10
    1229                    .dwcfi  save_reg_to_mem, 12, -10
    1230 000008 120B          PUSH.W    r11                   ; [] 
    1231                    .dwcfi  cfa_offset, 12
    1232                    .dwcfi  save_reg_to_mem, 11, -12
    1233 00000a 8321          SUB.W     #2,SP                 ; [] 
    1234                    .dwcfi  cfa_offset, 14
    1235                    .dwpsn  file "../project.c",line 157,column 5,is_stmt,isa 0
    1236 00000c B3D2          BIT.B     #1,&P1IFG+0           ; [] |157| 
         00000e 0000!
    1237 000010 2467          JEQ       $C$L15                ; [] |157| 
    1238                                                      ; [] |157| 
    1239            ;* --------------------------------------------------------------------------*
    1240                    .dwpsn  file "../project.c",line 158,column 9,is_stmt,isa 0
    1241 000012 9382          TST.W     &S1pressed+0          ; [] |158| 
         000014 0000!
    1242 000016 2051          JNE       $C$L14                ; [] |158| 
    1243                                                      ; [] |158| 
    1244            ;* --------------------------------------------------------------------------*
    1245                    .dwpsn  file "../project.c",line 159,column 13,is_stmt,isa 0
    1246                    ; Begin 20000 cycle delay
    1247                    .newblock
    1248 000018 120D          PUSH     r13
    1249 00001a 403D          MOV.W    #6664, r13
         00001c 1A08 
    1250 00001e 831D  $1:     SUB.W    #1, r13
    1251 000020 23FE          JNE      $1
    1252 000022 413D          POP      r13
    1253 000024 4303          NOP
    1254                    ; End 20000 cycle delay ; [] |159| 
    1255                    .dwpsn  file "../project.c",line 160,column 13,is_stmt,isa 0
    1256 000026 9382          TST.W     &S1pressed+0          ; [] |160| 
         000028 0000!
    1257 00002a 205A          JNE       $C$L15                ; [] |160| 
    1258                                                      ; [] |160| 
    1259            ;* --------------------------------------------------------------------------*
    1260                    .dwpsn  file "../project.c",line 161,column 17,is_stmt,isa 0
    1261 00002c 40B1          MOV.W     #$C$SL10+0,0(SP)      ; [] |161| 
         00002e 0000!
         000030 0000 
    1262            $C$DW$75        .dwtag  DW_TAG_TI_branch
    1263                    .dwattr $C$DW$75, DW_AT_low_pc(0x00)
    1264                    .dwattr $C$DW$75, DW_AT_name("printf")
    1265                    .dwattr $C$DW$75, DW_AT_TI_call
    1266            
    1267 000032 12B0          CALL      #printf               ; [] |161| 
         000034 0000!
    1268                                                      ; [] |161| 
    1269                    .dwpsn  file "../project.c",line 162,column 17,is_stmt,isa 0
    1270 000036 4392          MOV.W     #1,&S1pressed+0       ; [] |162| 
         000038 0000!
    1271                    .dwpsn  file "../project.c",line 163,column 17,is_stmt,isa 0
    1272 00003a 9392          CMP.W     #1,&caesar+0          ; [] |163| 
MSP430 Assembler PC v21.6.0 Tue Aug  1 23:01:41 2023

Copyright (c) 2003-2018 Texas Instruments Incorporated
C:\Users\eas0035\AppData\Local\Temp\{5BCD9170-B37C-44F2-A877-1E9220DDA60C} PAGE   26

         00003c 0000!
    1273 00003e 2011          JNE       $C$L11                ; [] |163| 
    1274                                                      ; [] |163| 
    1275            ;* --------------------------------------------------------------------------*
    1276                    .dwpsn  file "../project.c",line 164,column 21,is_stmt,isa 0
    1277            $C$DW$76        .dwtag  DW_TAG_TI_branch
    1278                    .dwattr $C$DW$76, DW_AT_low_pc(0x00)
    1279                    .dwattr $C$DW$76, DW_AT_name("clearStates")
    1280                    .dwattr $C$DW$76, DW_AT_TI_call
    1281            
    1282 000040 12B0          CALL      #clearStates          ; [] |164| 
         000042 0000!
    1283                                                      ; [] |164| 
    1284                    .dwpsn  file "../project.c",line 165,column 21,is_stmt,isa 0
    1285 000044 40B1          MOV.W     #$C$SL11+0,0(SP)      ; [] |165| 
         000046 0000!
         000048 0000 
    1286            $C$DW$77        .dwtag  DW_TAG_TI_branch
    1287                    .dwattr $C$DW$77, DW_AT_low_pc(0x00)
    1288                    .dwattr $C$DW$77, DW_AT_name("printf")
    1289                    .dwattr $C$DW$77, DW_AT_TI_call
    1290            
    1291 00004a 12B0          CALL      #printf               ; [] |165| 
         00004c 0000!
    1292                                                      ; [] |165| 
    1293                    .dwpsn  file "../project.c",line 166,column 21,is_stmt,isa 0
    1294            $C$DW$78        .dwtag  DW_TAG_TI_branch
    1295                    .dwattr $C$DW$78, DW_AT_low_pc(0x00)
    1296                    .dwattr $C$DW$78, DW_AT_name("setSubstitution")
    1297                    .dwattr $C$DW$78, DW_AT_TI_call
    1298            
    1299 00004e 12B0          CALL      #setSubstitution      ; [] |166| 
         000050 0000!
    1300                                                      ; [] |166| 
    1301                    .dwpsn  file "../project.c",line 167,column 21,is_stmt,isa 0
    1302 000052 403C          MOV.W     #$C$SL8+0,r12         ; [] |167| 
         000054 0000!
    1303            $C$DW$79        .dwtag  DW_TAG_TI_branch
    1304                    .dwattr $C$DW$79, DW_AT_low_pc(0x00)
    1305                    .dwattr $C$DW$79, DW_AT_name("UART_send_string")
    1306                    .dwattr $C$DW$79, DW_AT_TI_call
    1307            
    1308 000056 12B0          CALL      #UART_send_string     ; [] |167| 
         000058 0000!
    1309                                                      ; [] |167| 
    1310                    .dwpsn  file "../project.c",line 168,column 21,is_stmt,isa 0
    1311 00005a 40B2          MOV.W     #16000,&TBCCR0+0      ; [] |168| 
         00005c 3E80 
         00005e 0000!
    1312 000060 3C27          JMP       $C$L13                ; [] 
    1313                                                      ; [] 
    1314            ;* --------------------------------------------------------------------------*
    1315 000062       $C$L11:    
    1316                    .dwpsn  file "../project.c",line 169,column 24,is_stmt,isa 0
    1317 000062 9392          CMP.W     #1,&substitution+0    ; [] |169| 
MSP430 Assembler PC v21.6.0 Tue Aug  1 23:01:41 2023

Copyright (c) 2003-2018 Texas Instruments Incorporated
C:\Users\eas0035\AppData\Local\Temp\{5BCD9170-B37C-44F2-A877-1E9220DDA60C} PAGE   27

         000064 0000!
    1318 000066 2011          JNE       $C$L12                ; [] |169| 
    1319                                                      ; [] |169| 
    1320            ;* --------------------------------------------------------------------------*
    1321                    .dwpsn  file "../project.c",line 170,column 21,is_stmt,isa 0
    1322            $C$DW$80        .dwtag  DW_TAG_TI_branch
    1323                    .dwattr $C$DW$80, DW_AT_low_pc(0x00)
    1324                    .dwattr $C$DW$80, DW_AT_name("clearStates")
    1325                    .dwattr $C$DW$80, DW_AT_TI_call
    1326            
    1327 000068 12B0          CALL      #clearStates          ; [] |170| 
         00006a 0000!
    1328                                                      ; [] |170| 
    1329                    .dwpsn  file "../project.c",line 171,column 21,is_stmt,isa 0
    1330 00006c 40B1          MOV.W     #$C$SL12+0,0(SP)      ; [] |171| 
         00006e 0000!
         000070 0000 
    1331            $C$DW$81        .dwtag  DW_TAG_TI_branch
    1332                    .dwattr $C$DW$81, DW_AT_low_pc(0x00)
    1333                    .dwattr $C$DW$81, DW_AT_name("printf")
    1334                    .dwattr $C$DW$81, DW_AT_TI_call
    1335            
    1336 000072 12B0          CALL      #printf               ; [] |171| 
         000074 0000!
    1337                                                      ; [] |171| 
    1338                    .dwpsn  file "../project.c",line 172,column 21,is_stmt,isa 0
    1339            $C$DW$82        .dwtag  DW_TAG_TI_branch
    1340                    .dwattr $C$DW$82, DW_AT_low_pc(0x00)
    1341                    .dwattr $C$DW$82, DW_AT_name("setVigenere")
    1342                    .dwattr $C$DW$82, DW_AT_TI_call
    1343            
    1344 000076 12B0          CALL      #setVigenere          ; [] |172| 
         000078 0000!
    1345                                                      ; [] |172| 
    1346                    .dwpsn  file "../project.c",line 173,column 21,is_stmt,isa 0
    1347 00007a 403C          MOV.W     #$C$SL9+0,r12         ; [] |173| 
         00007c 0000!
    1348            $C$DW$83        .dwtag  DW_TAG_TI_branch
    1349                    .dwattr $C$DW$83, DW_AT_low_pc(0x00)
    1350                    .dwattr $C$DW$83, DW_AT_name("UART_send_string")
    1351                    .dwattr $C$DW$83, DW_AT_TI_call
    1352            
    1353 00007e 12B0          CALL      #UART_send_string     ; [] |173| 
         000080 0000!
    1354                                                      ; [] |173| 
    1355                    .dwpsn  file "../project.c",line 174,column 21,is_stmt,isa 0
    1356 000082 40B2          MOV.W     #8000,&TBCCR0+0       ; [] |174| 
         000084 1F40 
         000086 0000!
    1357 000088 3C13          JMP       $C$L13                ; [] 
    1358                                                      ; [] 
    1359            ;* --------------------------------------------------------------------------*
    1360 00008a       $C$L12:    
    1361                    .dwpsn  file "../project.c",line 175,column 24,is_stmt,isa 0
    1362 00008a 9392          CMP.W     #1,&vigenere+0        ; [] |175| 
MSP430 Assembler PC v21.6.0 Tue Aug  1 23:01:41 2023

Copyright (c) 2003-2018 Texas Instruments Incorporated
C:\Users\eas0035\AppData\Local\Temp\{5BCD9170-B37C-44F2-A877-1E9220DDA60C} PAGE   28

         00008c 0000!
    1363 00008e 2010          JNE       $C$L13                ; [] |175| 
    1364                                                      ; [] |175| 
    1365            ;* --------------------------------------------------------------------------*
    1366                    .dwpsn  file "../project.c",line 176,column 21,is_stmt,isa 0
    1367            $C$DW$84        .dwtag  DW_TAG_TI_branch
    1368                    .dwattr $C$DW$84, DW_AT_low_pc(0x00)
    1369                    .dwattr $C$DW$84, DW_AT_name("clearStates")
    1370                    .dwattr $C$DW$84, DW_AT_TI_call
    1371            
    1372 000090 12B0          CALL      #clearStates          ; [] |176| 
         000092 0000!
    1373                                                      ; [] |176| 
    1374                    .dwpsn  file "../project.c",line 177,column 21,is_stmt,isa 0
    1375 000094 40B1          MOV.W     #$C$SL13+0,0(SP)      ; [] |177| 
         000096 0000!
         000098 0000 
    1376            $C$DW$85        .dwtag  DW_TAG_TI_branch
    1377                    .dwattr $C$DW$85, DW_AT_low_pc(0x00)
    1378                    .dwattr $C$DW$85, DW_AT_name("printf")
    1379                    .dwattr $C$DW$85, DW_AT_TI_call
    1380            
    1381 00009a 12B0          CALL      #printf               ; [] |177| 
         00009c 0000!
    1382                                                      ; [] |177| 
    1383                    .dwpsn  file "../project.c",line 178,column 21,is_stmt,isa 0
    1384            $C$DW$86        .dwtag  DW_TAG_TI_branch
    1385                    .dwattr $C$DW$86, DW_AT_low_pc(0x00)
    1386                    .dwattr $C$DW$86, DW_AT_name("setCaesar")
    1387                    .dwattr $C$DW$86, DW_AT_TI_call
    1388            
    1389 00009e 12B0          CALL      #setCaesar            ; [] |178| 
         0000a0 0000!
    1390                                                      ; [] |178| 
    1391                    .dwpsn  file "../project.c",line 179,column 21,is_stmt,isa 0
    1392 0000a2 403C          MOV.W     #$C$SL7+0,r12         ; [] |179| 
         0000a4 0000!
    1393            $C$DW$87        .dwtag  DW_TAG_TI_branch
    1394                    .dwattr $C$DW$87, DW_AT_low_pc(0x00)
    1395                    .dwattr $C$DW$87, DW_AT_name("UART_send_string")
    1396                    .dwattr $C$DW$87, DW_AT_TI_call
    1397            
    1398 0000a6 12B0          CALL      #UART_send_string     ; [] |179| 
         0000a8 0000!
    1399                                                      ; [] |179| 
    1400                    .dwpsn  file "../project.c",line 180,column 21,is_stmt,isa 0
    1401 0000aa 40B2          MOV.W     #32000,&TBCCR0+0      ; [] |180| 
         0000ac 7D00 
         0000ae 0000!
    1402            ;* --------------------------------------------------------------------------*
    1403 0000b0       $C$L13:    
    1404                    .dwpsn  file "../project.c",line 182,column 17,is_stmt,isa 0
    1405 0000b0 C3D2          BIC.B     #1,&P1IFG+0           ; [] |182| 
         0000b2 0000!
    1406                    .dwpsn  file "../project.c",line 183,column 17,is_stmt,isa 0
MSP430 Assembler PC v21.6.0 Tue Aug  1 23:01:41 2023

Copyright (c) 2003-2018 Texas Instruments Incorporated
C:\Users\eas0035\AppData\Local\Temp\{5BCD9170-B37C-44F2-A877-1E9220DDA60C} PAGE   29

    1407 0000b4 C3D2          BIC.B     #1,&P1IES+0           ; [] |183| 
         0000b6 0000!
    1408 0000b8 3C13          JMP       $C$L15                ; [] 
    1409                                                      ; [] 
    1410            ;* --------------------------------------------------------------------------*
    1411 0000ba       $C$L14:    
    1412                    .dwpsn  file "../project.c",line 185,column 16,is_stmt,isa 0
    1413 0000ba 9392          CMP.W     #1,&S1pressed+0       ; [] |185| 
         0000bc 0000!
    1414 0000be 2010          JNE       $C$L15                ; [] |185| 
    1415                                                      ; [] |185| 
    1416            ;* --------------------------------------------------------------------------*
    1417                    .dwpsn  file "../project.c",line 186,column 13,is_stmt,isa 0
    1418                    ; Begin 20000 cycle delay
    1419                    .newblock
    1420 0000c0 120D          PUSH     r13
    1421 0000c2 403D          MOV.W    #6664, r13
         0000c4 1A08 
    1422 0000c6 831D  $1:     SUB.W    #1, r13
    1423 0000c8 23FE          JNE      $1
    1424 0000ca 413D          POP      r13
    1425 0000cc 4303          NOP
    1426                    ; End 20000 cycle delay ; [] |186| 
    1427                    .dwpsn  file "../project.c",line 187,column 13,is_stmt,isa 0
    1428 0000ce 9392          CMP.W     #1,&S1pressed+0       ; [] |187| 
         0000d0 0000!
    1429 0000d2 2006          JNE       $C$L15                ; [] |187| 
    1430                                                      ; [] |187| 
    1431            ;* --------------------------------------------------------------------------*
    1432                    .dwpsn  file "../project.c",line 188,column 17,is_stmt,isa 0
    1433 0000d4 4382          MOV.W     #0,&S1pressed+0       ; [] |188| 
         0000d6 0000!
    1434                    .dwpsn  file "../project.c",line 189,column 17,is_stmt,isa 0
    1435 0000d8 C3D2          BIC.B     #1,&P1IFG+0           ; [] |189| 
         0000da 0000!
    1436                    .dwpsn  file "../project.c",line 190,column 17,is_stmt,isa 0
    1437 0000dc D3D2          OR.B      #1,&P1IES+0           ; [] |190| 
         0000de 0000!
    1438                    .dwpsn  file "../project.c",line 194,column 1,is_stmt,isa 0
    1439            ;* --------------------------------------------------------------------------*
    1440 0000e0       $C$L15:    
    1441 0000e0 5321          ADD.W     #2,SP                 ; [] 
    1442                    .dwcfi  cfa_offset, 12
    1443 0000e2 413B          POP       r11                   ; [] 
    1444                    .dwcfi  restore_reg, 11
    1445                    .dwcfi  cfa_offset, 10
    1446 0000e4 413C          POP       r12                   ; [] 
    1447                    .dwcfi  restore_reg, 12
    1448                    .dwcfi  cfa_offset, 8
    1449 0000e6 413D          POP       r13                   ; [] 
    1450                    .dwcfi  restore_reg, 13
    1451                    .dwcfi  cfa_offset, 6
    1452 0000e8 413E          POP       r14                   ; [] 
    1453                    .dwcfi  restore_reg, 14
    1454                    .dwcfi  cfa_offset, 4
MSP430 Assembler PC v21.6.0 Tue Aug  1 23:01:41 2023

Copyright (c) 2003-2018 Texas Instruments Incorporated
C:\Users\eas0035\AppData\Local\Temp\{5BCD9170-B37C-44F2-A877-1E9220DDA60C} PAGE   30

    1455 0000ea 413F          POP       r15                   ; [] 
    1456                    .dwcfi  restore_reg, 15
    1457                    .dwcfi  cfa_offset, 2
    1458            $C$DW$88        .dwtag  DW_TAG_TI_branch
    1459                    .dwattr $C$DW$88, DW_AT_low_pc(0x00)
    1460                    .dwattr $C$DW$88, DW_AT_TI_return
    1461            
    1462 0000ec 1300          RETI      ; [] 
    1463                    ; [] 
    1464                    .dwattr $C$DW$74, DW_AT_TI_end_file("../project.c")
    1465                    .dwattr $C$DW$74, DW_AT_TI_end_line(0xc2)
    1466                    .dwattr $C$DW$74, DW_AT_TI_end_column(0x01)
    1467                    .dwendentry
    1468                    .dwendtag $C$DW$74
    1469            
    1470            ;******************************************************************************
    1471            ;* STRINGS                                                                    *
    1472            ;******************************************************************************
    1473 000000               .sect   ".const:.string"
    1474                    .align  2
    1475 000000 001B  $C$SL1: .string 27,"[31m",0
         000001 005B 
         000002 0033 
         000003 0031 
         000004 006D 
         000005 0000 
    1476                    .align  2
    1477 000006 000D  $C$SL2: .string 13,10,"Welcome to cipher tool!",0
         000007 000A 
         000008 0057 
         000009 0065 
         00000a 006C 
         00000b 0063 
         00000c 006F 
         00000d 006D 
         00000e 0065 
         00000f 0020 
         000010 0074 
         000011 006F 
         000012 0020 
         000013 0063 
         000014 0069 
         000015 0070 
         000016 0068 
         000017 0065 
         000018 0072 
         000019 0020 
         00001a 0074 
         00001b 006F 
         00001c 006F 
         00001d 006C 
         00001e 0021 
         00001f 0000 
    1478                    .align  2
    1479 000020 001B  $C$SL3: .string 27,"[34m",0
MSP430 Assembler PC v21.6.0 Tue Aug  1 23:01:41 2023

Copyright (c) 2003-2018 Texas Instruments Incorporated
C:\Users\eas0035\AppData\Local\Temp\{5BCD9170-B37C-44F2-A877-1E9220DDA60C} PAGE   31

         000021 005B 
         000022 0033 
         000023 0034 
         000024 006D 
         000025 0000 
    1480                    .align  2
    1481 000026 000D  $C$SL4: .string 13,10,13,10,"Press switch 1 to toggle through cipher options"
         000027 000A 
         000028 000D 
         000029 000A 
         00002a 0050 
         00002b 0072 
         00002c 0065 
         00002d 0073 
         00002e 0073 
         00002f 0020 
         000030 0073 
         000031 0077 
         000032 0069 
         000033 0074 
         000034 0063 
         000035 0068 
         000036 0020 
         000037 0031 
         000038 0020 
         000039 0074 
         00003a 006F 
         00003b 0020 
         00003c 0074 
         00003d 006F 
         00003e 0067 
         00003f 0067 
         000040 006C 
         000041 0065 
         000042 0020 
         000043 0074 
         000044 0068 
         000045 0072 
         000046 006F 
         000047 0075 
         000048 0067 
         000049 0068 
         00004a 0020 
         00004b 0063 
         00004c 0069 
         00004d 0070 
         00004e 0068 
         00004f 0065 
         000050 0072 
         000051 0020 
         000052 006F 
         000053 0070 
         000054 0074 
         000055 0069 
         000056 006F 
MSP430 Assembler PC v21.6.0 Tue Aug  1 23:01:41 2023

Copyright (c) 2003-2018 Texas Instruments Incorporated
C:\Users\eas0035\AppData\Local\Temp\{5BCD9170-B37C-44F2-A877-1E9220DDA60C} PAGE   32

         000057 006E 
         000058 0073 
    1482 000059 000D          .string 13,10,0
         00005a 000A 
         00005b 0000 
    1483                    .align  2
    1484 00005c 001B  $C$SL5: .string 27,"[0m",0
         00005d 005B 
         00005e 0030 
         00005f 006D 
         000060 0000 
    1485                    .align  2
    1486 000062 001B  $C$SL6: .string 27,"[32m",0
         000063 005B 
         000064 0033 
         000065 0032 
         000066 006D 
         000067 0000 
    1487                    .align  2
    1488 000068 000D  $C$SL7: .string 13,10,"Caesar Cipher",13,10,13,10,0
         000069 000A 
         00006a 0043 
         00006b 0061 
         00006c 0065 
         00006d 0073 
         00006e 0061 
         00006f 0072 
         000070 0020 
         000071 0043 
         000072 0069 
         000073 0070 
         000074 0068 
         000075 0065 
         000076 0072 
         000077 000D 
         000078 000A 
         000079 000D 
         00007a 000A 
         00007b 0000 
    1489                    .align  2
    1490 00007c 000D  $C$SL8: .string 13,10,"Substitution Cipher",13,10,13,10,0
         00007d 000A 
         00007e 0053 
         00007f 0075 
         000080 0062 
         000081 0073 
         000082 0074 
         000083 0069 
         000084 0074 
         000085 0075 
         000086 0074 
         000087 0069 
         000088 006F 
         000089 006E 
         00008a 0020 
MSP430 Assembler PC v21.6.0 Tue Aug  1 23:01:41 2023

Copyright (c) 2003-2018 Texas Instruments Incorporated
C:\Users\eas0035\AppData\Local\Temp\{5BCD9170-B37C-44F2-A877-1E9220DDA60C} PAGE   33

         00008b 0043 
         00008c 0069 
         00008d 0070 
         00008e 0068 
         00008f 0065 
         000090 0072 
         000091 000D 
         000092 000A 
         000093 000D 
         000094 000A 
         000095 0000 
    1491                    .align  2
    1492 000096 000D  $C$SL9: .string 13,10,"Vigenere Cipher",13,10,13,10,0
         000097 000A 
         000098 0056 
         000099 0069 
         00009a 0067 
         00009b 0065 
         00009c 006E 
         00009d 0065 
         00009e 0072 
         00009f 0065 
         0000a0 0020 
         0000a1 0043 
         0000a2 0069 
         0000a3 0070 
         0000a4 0068 
         0000a5 0065 
         0000a6 0072 
         0000a7 000D 
         0000a8 000A 
         0000a9 000D 
         0000aa 000A 
         0000ab 0000 
    1493                    .align  2
    1494 0000ac 0073  $C$SL10:        .string "sw1 pressed",10,0
         0000ad 0077 
         0000ae 0031 
         0000af 0020 
         0000b0 0070 
         0000b1 0072 
         0000b2 0065 
         0000b3 0073 
         0000b4 0073 
         0000b5 0065 
         0000b6 0064 
         0000b7 000A 
         0000b8 0000 
    1495                    .align  2
    1496 0000ba 0063  $C$SL11:        .string "caesar",0
         0000bb 0061 
         0000bc 0065 
         0000bd 0073 
         0000be 0061 
         0000bf 0072 
MSP430 Assembler PC v21.6.0 Tue Aug  1 23:01:41 2023

Copyright (c) 2003-2018 Texas Instruments Incorporated
C:\Users\eas0035\AppData\Local\Temp\{5BCD9170-B37C-44F2-A877-1E9220DDA60C} PAGE   34

         0000c0 0000 
    1497                    .align  2
    1498 0000c2 0073  $C$SL12:        .string "substitution",0
         0000c3 0075 
         0000c4 0062 
         0000c5 0073 
         0000c6 0074 
         0000c7 0069 
         0000c8 0074 
         0000c9 0075 
         0000ca 0074 
         0000cb 0069 
         0000cc 006F 
         0000cd 006E 
         0000ce 0000 
    1499                    .align  2
    1500 0000d0 0076  $C$SL13:        .string "vigenere",0
         0000d1 0069 
         0000d2 0067 
         0000d3 0065 
         0000d4 006E 
         0000d5 0065 
         0000d6 0072 
         0000d7 0065 
         0000d8 0000 
    1501            ;*****************************************************************************
    1502            ;* UNDEFINED EXTERNAL REFERENCES                                             *
    1503            ;*****************************************************************************
    1504                    .global IE2
    1505                    .global IFG2
    1506                    .global P1IFG
    1507                    .global P1IES
    1508                    .global P1IE
    1509                    .global P2DIR
    1510                    .global P2SEL
    1511                    .global TBCTL
    1512                    .global TBCCTL0
    1513                    .global TBCCR0
    1514                    .global UCA0CTL1
    1515                    .global UCA0BR0
    1516                    .global UCA0BR1
    1517                    .global UCA0MCTL
    1518                    .global UCA0RXBUF
    1519                    .global UCA0TXBUF
    1520                    .global WDTCTL
    1521                    .global strlen
    1522                    .global printf
    1523            
    1524            ;******************************************************************************
    1525            ;* BUILD ATTRIBUTES                                                           *
    1526            ;******************************************************************************
    1527                    .battr "TI", Tag_File, 1, Tag_LPM_INFO(2)
    1528                    .battr "TI", Tag_File, 1, Tag_PORTS_INIT_INFO("012345678901ABCDEFGHIJ0111111111101100000000001
    1529                    .battr "TI", Tag_File, 1, Tag_LEA_INFO(1)
    1530                    .battr "TI", Tag_File, 1, Tag_HW_MPY32_INFO(1)
MSP430 Assembler PC v21.6.0 Tue Aug  1 23:01:41 2023

Copyright (c) 2003-2018 Texas Instruments Incorporated
C:\Users\eas0035\AppData\Local\Temp\{5BCD9170-B37C-44F2-A877-1E9220DDA60C} PAGE   35

    1531                    .battr "TI", Tag_File, 1, Tag_HW_MPY_ISR_INFO(3)
    1532                    .battr "TI", Tag_File, 1, Tag_HW_MPY_INLINE_INFO(1)
    1533                    .battr "mspabi", Tag_File, 1, Tag_enum_size(3)
    1534            
    1535            ;******************************************************************************
    1536            ;* TYPE INFORMATION                                                           *
    1537            ;******************************************************************************
    1538            
    1539            $C$DW$T$22      .dwtag  DW_TAG_structure_type
    1540                    .dwattr $C$DW$T$22, DW_AT_byte_size(0x10)
    1541            $C$DW$89        .dwtag  DW_TAG_member
    1542                    .dwattr $C$DW$89, DW_AT_type(*$C$DW$T$14)
    1543                    .dwattr $C$DW$89, DW_AT_name("__max_align1")
    1544                    .dwattr $C$DW$89, DW_AT_TI_symbol_name("__max_align1")
    1545                    .dwattr $C$DW$89, DW_AT_data_member_location[DW_OP_plus_uconst 0x0]
    1546                    .dwattr $C$DW$89, DW_AT_accessibility(DW_ACCESS_public)
    1547                    .dwattr $C$DW$89, DW_AT_decl_file("C:/ti/ccs1200/ccs/tools/compiler/ti-cgt-msp430_21.6.0.LTS/i
    1548                    .dwattr $C$DW$89, DW_AT_decl_line(0x7b)
    1549                    .dwattr $C$DW$89, DW_AT_decl_column(0x0c)
    1550            
    1551            $C$DW$90        .dwtag  DW_TAG_member
    1552                    .dwattr $C$DW$90, DW_AT_type(*$C$DW$T$18)
    1553                    .dwattr $C$DW$90, DW_AT_name("__max_align2")
    1554                    .dwattr $C$DW$90, DW_AT_TI_symbol_name("__max_align2")
    1555                    .dwattr $C$DW$90, DW_AT_data_member_location[DW_OP_plus_uconst 0x8]
    1556                    .dwattr $C$DW$90, DW_AT_accessibility(DW_ACCESS_public)
    1557                    .dwattr $C$DW$90, DW_AT_decl_file("C:/ti/ccs1200/ccs/tools/compiler/ti-cgt-msp430_21.6.0.LTS/i
    1558                    .dwattr $C$DW$90, DW_AT_decl_line(0x7c)
    1559                    .dwattr $C$DW$90, DW_AT_decl_column(0x0e)
    1560            
    1561                    .dwattr $C$DW$T$22, DW_AT_decl_file("C:/ti/ccs1200/ccs/tools/compiler/ti-cgt-msp430_21.6.0.LTS
    1562                    .dwattr $C$DW$T$22, DW_AT_decl_line(0x7a)
    1563                    .dwattr $C$DW$T$22, DW_AT_decl_column(0x10)
    1564                    .dwendtag $C$DW$T$22
    1565            
    1566            $C$DW$T$25      .dwtag  DW_TAG_typedef
    1567                    .dwattr $C$DW$T$25, DW_AT_name("__max_align_t")
    1568                    .dwattr $C$DW$T$25, DW_AT_type(*$C$DW$T$22)
    1569                    .dwattr $C$DW$T$25, DW_AT_language(DW_LANG_C)
    1570                    .dwattr $C$DW$T$25, DW_AT_decl_file("C:/ti/ccs1200/ccs/tools/compiler/ti-cgt-msp430_21.6.0.LTS
    1571                    .dwattr $C$DW$T$25, DW_AT_decl_line(0x7d)
    1572                    .dwattr $C$DW$T$25, DW_AT_decl_column(0x03)
    1573            
    1574            $C$DW$T$2       .dwtag  DW_TAG_unspecified_type
    1575                    .dwattr $C$DW$T$2, DW_AT_name("void")
    1576            
    1577            
    1578            $C$DW$T$27      .dwtag  DW_TAG_subroutine_type
    1579                    .dwattr $C$DW$T$27, DW_AT_language(DW_LANG_C)
    1580                    .dwendtag $C$DW$T$27
    1581            
    1582            $C$DW$T$28      .dwtag  DW_TAG_pointer_type
    1583                    .dwattr $C$DW$T$28, DW_AT_type(*$C$DW$T$27)
    1584                    .dwattr $C$DW$T$28, DW_AT_address_class(0x10)
    1585            
MSP430 Assembler PC v21.6.0 Tue Aug  1 23:01:41 2023

Copyright (c) 2003-2018 Texas Instruments Incorporated
C:\Users\eas0035\AppData\Local\Temp\{5BCD9170-B37C-44F2-A877-1E9220DDA60C} PAGE   36

    1586            $C$DW$T$29      .dwtag  DW_TAG_typedef
    1587                    .dwattr $C$DW$T$29, DW_AT_name("__SFR_FARPTR")
    1588                    .dwattr $C$DW$T$29, DW_AT_type(*$C$DW$T$28)
    1589                    .dwattr $C$DW$T$29, DW_AT_language(DW_LANG_C)
    1590                    .dwattr $C$DW$T$29, DW_AT_decl_file("C:/ti/ccs1200/ccs/ccs_base/msp430/include/msp430xG46x.h")
    1591                    .dwattr $C$DW$T$29, DW_AT_decl_line(0x53)
    1592                    .dwattr $C$DW$T$29, DW_AT_decl_column(0x11)
    1593            
    1594            $C$DW$T$4       .dwtag  DW_TAG_base_type
    1595                    .dwattr $C$DW$T$4, DW_AT_encoding(DW_ATE_boolean)
    1596                    .dwattr $C$DW$T$4, DW_AT_name("bool")
    1597                    .dwattr $C$DW$T$4, DW_AT_byte_size(0x01)
    1598            
    1599            $C$DW$T$5       .dwtag  DW_TAG_base_type
    1600                    .dwattr $C$DW$T$5, DW_AT_encoding(DW_ATE_signed_char)
    1601                    .dwattr $C$DW$T$5, DW_AT_name("signed char")
    1602                    .dwattr $C$DW$T$5, DW_AT_byte_size(0x01)
    1603            
    1604            $C$DW$T$37      .dwtag  DW_TAG_typedef
    1605                    .dwattr $C$DW$T$37, DW_AT_name("__int8_t")
    1606                    .dwattr $C$DW$T$37, DW_AT_type(*$C$DW$T$5)
    1607                    .dwattr $C$DW$T$37, DW_AT_language(DW_LANG_C)
    1608                    .dwattr $C$DW$T$37, DW_AT_decl_file("C:/ti/ccs1200/ccs/tools/compiler/ti-cgt-msp430_21.6.0.LTS
    1609                    .dwattr $C$DW$T$37, DW_AT_decl_line(0x36)
    1610                    .dwattr $C$DW$T$37, DW_AT_decl_column(0x16)
    1611            
    1612            $C$DW$T$38      .dwtag  DW_TAG_typedef
    1613                    .dwattr $C$DW$T$38, DW_AT_name("__int_least8_t")
    1614                    .dwattr $C$DW$T$38, DW_AT_type(*$C$DW$T$37)
    1615                    .dwattr $C$DW$T$38, DW_AT_language(DW_LANG_C)
    1616                    .dwattr $C$DW$T$38, DW_AT_decl_file("C:/ti/ccs1200/ccs/tools/compiler/ti-cgt-msp430_21.6.0.LTS
    1617                    .dwattr $C$DW$T$38, DW_AT_decl_line(0x5a)
    1618                    .dwattr $C$DW$T$38, DW_AT_decl_column(0x12)
    1619            
    1620            $C$DW$T$6       .dwtag  DW_TAG_base_type
    1621                    .dwattr $C$DW$T$6, DW_AT_encoding(DW_ATE_unsigned_char)
    1622                    .dwattr $C$DW$T$6, DW_AT_name("unsigned char")
    1623                    .dwattr $C$DW$T$6, DW_AT_byte_size(0x01)
    1624            
    1625            $C$DW$T$23      .dwtag  DW_TAG_pointer_type
    1626                    .dwattr $C$DW$T$23, DW_AT_type(*$C$DW$T$6)
    1627                    .dwattr $C$DW$T$23, DW_AT_address_class(0x10)
    1628            
    1629            $C$DW$T$39      .dwtag  DW_TAG_volatile_type
    1630                    .dwattr $C$DW$T$39, DW_AT_type(*$C$DW$T$6)
    1631            
    1632            $C$DW$T$40      .dwtag  DW_TAG_typedef
    1633                    .dwattr $C$DW$T$40, DW_AT_name("__uint8_t")
    1634                    .dwattr $C$DW$T$40, DW_AT_type(*$C$DW$T$6)
    1635                    .dwattr $C$DW$T$40, DW_AT_language(DW_LANG_C)
    1636                    .dwattr $C$DW$T$40, DW_AT_decl_file("C:/ti/ccs1200/ccs/tools/compiler/ti-cgt-msp430_21.6.0.LTS
    1637                    .dwattr $C$DW$T$40, DW_AT_decl_line(0x37)
    1638                    .dwattr $C$DW$T$40, DW_AT_decl_column(0x18)
    1639            
    1640            $C$DW$T$41      .dwtag  DW_TAG_typedef
MSP430 Assembler PC v21.6.0 Tue Aug  1 23:01:41 2023

Copyright (c) 2003-2018 Texas Instruments Incorporated
C:\Users\eas0035\AppData\Local\Temp\{5BCD9170-B37C-44F2-A877-1E9220DDA60C} PAGE   37

    1641                    .dwattr $C$DW$T$41, DW_AT_name("__sa_family_t")
    1642                    .dwattr $C$DW$T$41, DW_AT_type(*$C$DW$T$40)
    1643                    .dwattr $C$DW$T$41, DW_AT_language(DW_LANG_C)
    1644                    .dwattr $C$DW$T$41, DW_AT_decl_file("C:/ti/ccs1200/ccs/tools/compiler/ti-cgt-msp430_21.6.0.LTS
    1645                    .dwattr $C$DW$T$41, DW_AT_decl_line(0x47)
    1646                    .dwattr $C$DW$T$41, DW_AT_decl_column(0x13)
    1647            
    1648            $C$DW$T$42      .dwtag  DW_TAG_typedef
    1649                    .dwattr $C$DW$T$42, DW_AT_name("__uint_least8_t")
    1650                    .dwattr $C$DW$T$42, DW_AT_type(*$C$DW$T$40)
    1651                    .dwattr $C$DW$T$42, DW_AT_language(DW_LANG_C)
    1652                    .dwattr $C$DW$T$42, DW_AT_decl_file("C:/ti/ccs1200/ccs/tools/compiler/ti-cgt-msp430_21.6.0.LTS
    1653                    .dwattr $C$DW$T$42, DW_AT_decl_line(0x74)
    1654                    .dwattr $C$DW$T$42, DW_AT_decl_column(0x13)
    1655            
    1656            $C$DW$T$7       .dwtag  DW_TAG_base_type
    1657                    .dwattr $C$DW$T$7, DW_AT_encoding(DW_ATE_signed_char)
    1658                    .dwattr $C$DW$T$7, DW_AT_name("wchar_t")
    1659                    .dwattr $C$DW$T$7, DW_AT_byte_size(0x02)
    1660            
    1661            $C$DW$T$8       .dwtag  DW_TAG_base_type
    1662                    .dwattr $C$DW$T$8, DW_AT_encoding(DW_ATE_signed)
    1663                    .dwattr $C$DW$T$8, DW_AT_name("short")
    1664                    .dwattr $C$DW$T$8, DW_AT_byte_size(0x02)
    1665            
    1666            $C$DW$T$9       .dwtag  DW_TAG_base_type
    1667                    .dwattr $C$DW$T$9, DW_AT_encoding(DW_ATE_unsigned)
    1668                    .dwattr $C$DW$T$9, DW_AT_name("unsigned short")
    1669                    .dwattr $C$DW$T$9, DW_AT_byte_size(0x02)
    1670            
    1671            $C$DW$T$10      .dwtag  DW_TAG_base_type
    1672                    .dwattr $C$DW$T$10, DW_AT_encoding(DW_ATE_signed)
    1673                    .dwattr $C$DW$T$10, DW_AT_name("int")
    1674                    .dwattr $C$DW$T$10, DW_AT_byte_size(0x02)
    1675            
    1676            $C$DW$T$43      .dwtag  DW_TAG_typedef
    1677                    .dwattr $C$DW$T$43, DW_AT_name("_Mbstatet")
    1678                    .dwattr $C$DW$T$43, DW_AT_type(*$C$DW$T$10)
    1679                    .dwattr $C$DW$T$43, DW_AT_language(DW_LANG_C)
    1680                    .dwattr $C$DW$T$43, DW_AT_decl_file("C:/ti/ccs1200/ccs/tools/compiler/ti-cgt-msp430_21.6.0.LTS
    1681                    .dwattr $C$DW$T$43, DW_AT_decl_line(0x8f)
    1682                    .dwattr $C$DW$T$43, DW_AT_decl_column(0x0d)
    1683            
    1684            $C$DW$T$44      .dwtag  DW_TAG_typedef
    1685                    .dwattr $C$DW$T$44, DW_AT_name("__mbstate_t")
    1686                    .dwattr $C$DW$T$44, DW_AT_type(*$C$DW$T$43)
    1687                    .dwattr $C$DW$T$44, DW_AT_language(DW_LANG_C)
    1688                    .dwattr $C$DW$T$44, DW_AT_decl_file("C:/ti/ccs1200/ccs/tools/compiler/ti-cgt-msp430_21.6.0.LTS
    1689                    .dwattr $C$DW$T$44, DW_AT_decl_line(0x92)
    1690                    .dwattr $C$DW$T$44, DW_AT_decl_column(0x13)
    1691            
    1692            $C$DW$T$45      .dwtag  DW_TAG_typedef
    1693                    .dwattr $C$DW$T$45, DW_AT_name("__accmode_t")
    1694                    .dwattr $C$DW$T$45, DW_AT_type(*$C$DW$T$10)
    1695                    .dwattr $C$DW$T$45, DW_AT_language(DW_LANG_C)
MSP430 Assembler PC v21.6.0 Tue Aug  1 23:01:41 2023

Copyright (c) 2003-2018 Texas Instruments Incorporated
C:\Users\eas0035\AppData\Local\Temp\{5BCD9170-B37C-44F2-A877-1E9220DDA60C} PAGE   38

    1696                    .dwattr $C$DW$T$45, DW_AT_decl_file("C:/ti/ccs1200/ccs/tools/compiler/ti-cgt-msp430_21.6.0.LTS
    1697                    .dwattr $C$DW$T$45, DW_AT_decl_line(0x3b)
    1698                    .dwattr $C$DW$T$45, DW_AT_decl_column(0x0e)
    1699            
    1700            $C$DW$T$51      .dwtag  DW_TAG_typedef
    1701                    .dwattr $C$DW$T$51, DW_AT_name("__cpulevel_t")
    1702                    .dwattr $C$DW$T$51, DW_AT_type(*$C$DW$T$10)
    1703                    .dwattr $C$DW$T$51, DW_AT_language(DW_LANG_C)
    1704                    .dwattr $C$DW$T$51, DW_AT_decl_file("C:/ti/ccs1200/ccs/tools/compiler/ti-cgt-msp430_21.6.0.LTS
    1705                    .dwattr $C$DW$T$51, DW_AT_decl_line(0x50)
    1706                    .dwattr $C$DW$T$51, DW_AT_decl_column(0x0e)
    1707            
    1708            $C$DW$T$52      .dwtag  DW_TAG_typedef
    1709                    .dwattr $C$DW$T$52, DW_AT_name("__cpusetid_t")
    1710                    .dwattr $C$DW$T$52, DW_AT_type(*$C$DW$T$10)
    1711                    .dwattr $C$DW$T$52, DW_AT_language(DW_LANG_C)
    1712                    .dwattr $C$DW$T$52, DW_AT_decl_file("C:/ti/ccs1200/ccs/tools/compiler/ti-cgt-msp430_21.6.0.LTS
    1713                    .dwattr $C$DW$T$52, DW_AT_decl_line(0x51)
    1714                    .dwattr $C$DW$T$52, DW_AT_decl_column(0x0e)
    1715            
    1716            $C$DW$T$53      .dwtag  DW_TAG_typedef
    1717                    .dwattr $C$DW$T$53, DW_AT_name("__cpuwhich_t")
    1718                    .dwattr $C$DW$T$53, DW_AT_type(*$C$DW$T$10)
    1719                    .dwattr $C$DW$T$53, DW_AT_language(DW_LANG_C)
    1720                    .dwattr $C$DW$T$53, DW_AT_decl_file("C:/ti/ccs1200/ccs/tools/compiler/ti-cgt-msp430_21.6.0.LTS
    1721                    .dwattr $C$DW$T$53, DW_AT_decl_line(0x4f)
    1722                    .dwattr $C$DW$T$53, DW_AT_decl_column(0x0e)
    1723            
    1724            $C$DW$T$54      .dwtag  DW_TAG_typedef
    1725                    .dwattr $C$DW$T$54, DW_AT_name("__ct_rune_t")
    1726                    .dwattr $C$DW$T$54, DW_AT_type(*$C$DW$T$10)
    1727                    .dwattr $C$DW$T$54, DW_AT_language(DW_LANG_C)
    1728                    .dwattr $C$DW$T$54, DW_AT_decl_file("C:/ti/ccs1200/ccs/tools/compiler/ti-cgt-msp430_21.6.0.LTS
    1729                    .dwattr $C$DW$T$54, DW_AT_decl_line(0x69)
    1730                    .dwattr $C$DW$T$54, DW_AT_decl_column(0x0e)
    1731            
    1732            $C$DW$T$55      .dwtag  DW_TAG_typedef
    1733                    .dwattr $C$DW$T$55, DW_AT_name("__rune_t")
    1734                    .dwattr $C$DW$T$55, DW_AT_type(*$C$DW$T$54)
    1735                    .dwattr $C$DW$T$55, DW_AT_language(DW_LANG_C)
    1736                    .dwattr $C$DW$T$55, DW_AT_decl_file("C:/ti/ccs1200/ccs/tools/compiler/ti-cgt-msp430_21.6.0.LTS
    1737                    .dwattr $C$DW$T$55, DW_AT_decl_line(0x6c)
    1738                    .dwattr $C$DW$T$55, DW_AT_decl_column(0x15)
    1739            
    1740            $C$DW$T$56      .dwtag  DW_TAG_typedef
    1741                    .dwattr $C$DW$T$56, DW_AT_name("__wint_t")
    1742                    .dwattr $C$DW$T$56, DW_AT_type(*$C$DW$T$54)
    1743                    .dwattr $C$DW$T$56, DW_AT_language(DW_LANG_C)
    1744                    .dwattr $C$DW$T$56, DW_AT_decl_file("C:/ti/ccs1200/ccs/tools/compiler/ti-cgt-msp430_21.6.0.LTS
    1745                    .dwattr $C$DW$T$56, DW_AT_decl_line(0x6d)
    1746                    .dwattr $C$DW$T$56, DW_AT_decl_column(0x15)
    1747            
    1748            $C$DW$T$57      .dwtag  DW_TAG_typedef
    1749                    .dwattr $C$DW$T$57, DW_AT_name("__int16_t")
    1750                    .dwattr $C$DW$T$57, DW_AT_type(*$C$DW$T$10)
MSP430 Assembler PC v21.6.0 Tue Aug  1 23:01:41 2023

Copyright (c) 2003-2018 Texas Instruments Incorporated
C:\Users\eas0035\AppData\Local\Temp\{5BCD9170-B37C-44F2-A877-1E9220DDA60C} PAGE   39

    1751                    .dwattr $C$DW$T$57, DW_AT_language(DW_LANG_C)
    1752                    .dwattr $C$DW$T$57, DW_AT_decl_file("C:/ti/ccs1200/ccs/tools/compiler/ti-cgt-msp430_21.6.0.LTS
    1753                    .dwattr $C$DW$T$57, DW_AT_decl_line(0x38)
    1754                    .dwattr $C$DW$T$57, DW_AT_decl_column(0x0f)
    1755            
    1756            $C$DW$T$58      .dwtag  DW_TAG_typedef
    1757                    .dwattr $C$DW$T$58, DW_AT_name("__int_fast16_t")
    1758                    .dwattr $C$DW$T$58, DW_AT_type(*$C$DW$T$57)
    1759                    .dwattr $C$DW$T$58, DW_AT_language(DW_LANG_C)
    1760                    .dwattr $C$DW$T$58, DW_AT_decl_file("C:/ti/ccs1200/ccs/tools/compiler/ti-cgt-msp430_21.6.0.LTS
    1761                    .dwattr $C$DW$T$58, DW_AT_decl_line(0x57)
    1762                    .dwattr $C$DW$T$58, DW_AT_decl_column(0x13)
    1763            
    1764            $C$DW$T$59      .dwtag  DW_TAG_typedef
    1765                    .dwattr $C$DW$T$59, DW_AT_name("__int_fast8_t")
    1766                    .dwattr $C$DW$T$59, DW_AT_type(*$C$DW$T$57)
    1767                    .dwattr $C$DW$T$59, DW_AT_language(DW_LANG_C)
    1768                    .dwattr $C$DW$T$59, DW_AT_decl_file("C:/ti/ccs1200/ccs/tools/compiler/ti-cgt-msp430_21.6.0.LTS
    1769                    .dwattr $C$DW$T$59, DW_AT_decl_line(0x56)
    1770                    .dwattr $C$DW$T$59, DW_AT_decl_column(0x13)
    1771            
    1772            $C$DW$T$60      .dwtag  DW_TAG_typedef
    1773                    .dwattr $C$DW$T$60, DW_AT_name("__int_least16_t")
    1774                    .dwattr $C$DW$T$60, DW_AT_type(*$C$DW$T$57)
    1775                    .dwattr $C$DW$T$60, DW_AT_language(DW_LANG_C)
    1776                    .dwattr $C$DW$T$60, DW_AT_decl_file("C:/ti/ccs1200/ccs/tools/compiler/ti-cgt-msp430_21.6.0.LTS
    1777                    .dwattr $C$DW$T$60, DW_AT_decl_line(0x5b)
    1778                    .dwattr $C$DW$T$60, DW_AT_decl_column(0x13)
    1779            
    1780            $C$DW$T$61      .dwtag  DW_TAG_typedef
    1781                    .dwattr $C$DW$T$61, DW_AT_name("__intptr_t")
    1782                    .dwattr $C$DW$T$61, DW_AT_type(*$C$DW$T$57)
    1783                    .dwattr $C$DW$T$61, DW_AT_language(DW_LANG_C)
    1784                    .dwattr $C$DW$T$61, DW_AT_decl_file("C:/ti/ccs1200/ccs/tools/compiler/ti-cgt-msp430_21.6.0.LTS
    1785                    .dwattr $C$DW$T$61, DW_AT_decl_line(0x53)
    1786                    .dwattr $C$DW$T$61, DW_AT_decl_column(0x19)
    1787            
    1788            $C$DW$T$62      .dwtag  DW_TAG_typedef
    1789                    .dwattr $C$DW$T$62, DW_AT_name("__register_t")
    1790                    .dwattr $C$DW$T$62, DW_AT_type(*$C$DW$T$57)
    1791                    .dwattr $C$DW$T$62, DW_AT_language(DW_LANG_C)
    1792                    .dwattr $C$DW$T$62, DW_AT_decl_file("C:/ti/ccs1200/ccs/tools/compiler/ti-cgt-msp430_21.6.0.LTS
    1793                    .dwattr $C$DW$T$62, DW_AT_decl_line(0x5f)
    1794                    .dwattr $C$DW$T$62, DW_AT_decl_column(0x13)
    1795            
    1796            $C$DW$T$63      .dwtag  DW_TAG_typedef
    1797                    .dwattr $C$DW$T$63, DW_AT_name("__nl_item")
    1798                    .dwattr $C$DW$T$63, DW_AT_type(*$C$DW$T$10)
    1799                    .dwattr $C$DW$T$63, DW_AT_language(DW_LANG_C)
    1800                    .dwattr $C$DW$T$63, DW_AT_decl_file("C:/ti/ccs1200/ccs/tools/compiler/ti-cgt-msp430_21.6.0.LTS
    1801                    .dwattr $C$DW$T$63, DW_AT_decl_line(0x3c)
    1802                    .dwattr $C$DW$T$63, DW_AT_decl_column(0x0e)
    1803            
    1804            $C$DW$T$64      .dwtag  DW_TAG_typedef
    1805                    .dwattr $C$DW$T$64, DW_AT_name("__ptrdiff_t")
MSP430 Assembler PC v21.6.0 Tue Aug  1 23:01:41 2023

Copyright (c) 2003-2018 Texas Instruments Incorporated
C:\Users\eas0035\AppData\Local\Temp\{5BCD9170-B37C-44F2-A877-1E9220DDA60C} PAGE   40

    1806                    .dwattr $C$DW$T$64, DW_AT_type(*$C$DW$T$10)
    1807                    .dwattr $C$DW$T$64, DW_AT_language(DW_LANG_C)
    1808                    .dwattr $C$DW$T$64, DW_AT_decl_file("C:/ti/ccs1200/ccs/tools/compiler/ti-cgt-msp430_21.6.0.LTS
    1809                    .dwattr $C$DW$T$64, DW_AT_decl_line(0x5e)
    1810                    .dwattr $C$DW$T$64, DW_AT_decl_column(0x1c)
    1811            
    1812            $C$DW$T$11      .dwtag  DW_TAG_base_type
    1813                    .dwattr $C$DW$T$11, DW_AT_encoding(DW_ATE_unsigned)
    1814                    .dwattr $C$DW$T$11, DW_AT_name("unsigned int")
    1815                    .dwattr $C$DW$T$11, DW_AT_byte_size(0x02)
    1816            
    1817            $C$DW$T$65      .dwtag  DW_TAG_typedef
    1818                    .dwattr $C$DW$T$65, DW_AT_name("___wchar_t")
    1819                    .dwattr $C$DW$T$65, DW_AT_type(*$C$DW$T$11)
    1820                    .dwattr $C$DW$T$65, DW_AT_language(DW_LANG_C)
    1821                    .dwattr $C$DW$T$65, DW_AT_decl_file("C:/ti/ccs1200/ccs/tools/compiler/ti-cgt-msp430_21.6.0.LTS
    1822                    .dwattr $C$DW$T$65, DW_AT_decl_line(0x7d)
    1823                    .dwattr $C$DW$T$65, DW_AT_decl_column(0x1a)
    1824            
    1825            $C$DW$T$66      .dwtag  DW_TAG_volatile_type
    1826                    .dwattr $C$DW$T$66, DW_AT_type(*$C$DW$T$11)
    1827            
    1828            $C$DW$T$67      .dwtag  DW_TAG_typedef
    1829                    .dwattr $C$DW$T$67, DW_AT_name("__size_t")
    1830                    .dwattr $C$DW$T$67, DW_AT_type(*$C$DW$T$11)
    1831                    .dwattr $C$DW$T$67, DW_AT_language(DW_LANG_C)
    1832                    .dwattr $C$DW$T$67, DW_AT_decl_file("C:/ti/ccs1200/ccs/tools/compiler/ti-cgt-msp430_21.6.0.LTS
    1833                    .dwattr $C$DW$T$67, DW_AT_decl_line(0x61)
    1834                    .dwattr $C$DW$T$67, DW_AT_decl_column(0x19)
    1835            
    1836            $C$DW$T$68      .dwtag  DW_TAG_typedef
    1837                    .dwattr $C$DW$T$68, DW_AT_name("__uint16_t")
    1838                    .dwattr $C$DW$T$68, DW_AT_type(*$C$DW$T$11)
    1839                    .dwattr $C$DW$T$68, DW_AT_language(DW_LANG_C)
    1840                    .dwattr $C$DW$T$68, DW_AT_decl_file("C:/ti/ccs1200/ccs/tools/compiler/ti-cgt-msp430_21.6.0.LTS
    1841                    .dwattr $C$DW$T$68, DW_AT_decl_line(0x39)
    1842                    .dwattr $C$DW$T$68, DW_AT_decl_column(0x17)
    1843            
    1844            $C$DW$T$69      .dwtag  DW_TAG_typedef
    1845                    .dwattr $C$DW$T$69, DW_AT_name("__mode_t")
    1846                    .dwattr $C$DW$T$69, DW_AT_type(*$C$DW$T$68)
    1847                    .dwattr $C$DW$T$69, DW_AT_language(DW_LANG_C)
    1848                    .dwattr $C$DW$T$69, DW_AT_decl_file("C:/ti/ccs1200/ccs/tools/compiler/ti-cgt-msp430_21.6.0.LTS
    1849                    .dwattr $C$DW$T$69, DW_AT_decl_line(0x3a)
    1850                    .dwattr $C$DW$T$69, DW_AT_decl_column(0x14)
    1851            
    1852            $C$DW$T$70      .dwtag  DW_TAG_typedef
    1853                    .dwattr $C$DW$T$70, DW_AT_name("__u_register_t")
    1854                    .dwattr $C$DW$T$70, DW_AT_type(*$C$DW$T$68)
    1855                    .dwattr $C$DW$T$70, DW_AT_language(DW_LANG_C)
    1856                    .dwattr $C$DW$T$70, DW_AT_decl_file("C:/ti/ccs1200/ccs/tools/compiler/ti-cgt-msp430_21.6.0.LTS
    1857                    .dwattr $C$DW$T$70, DW_AT_decl_line(0x78)
    1858                    .dwattr $C$DW$T$70, DW_AT_decl_column(0x14)
    1859            
    1860            $C$DW$T$71      .dwtag  DW_TAG_typedef
MSP430 Assembler PC v21.6.0 Tue Aug  1 23:01:41 2023

Copyright (c) 2003-2018 Texas Instruments Incorporated
C:\Users\eas0035\AppData\Local\Temp\{5BCD9170-B37C-44F2-A877-1E9220DDA60C} PAGE   41

    1861                    .dwattr $C$DW$T$71, DW_AT_name("__uint_fast16_t")
    1862                    .dwattr $C$DW$T$71, DW_AT_type(*$C$DW$T$68)
    1863                    .dwattr $C$DW$T$71, DW_AT_language(DW_LANG_C)
    1864                    .dwattr $C$DW$T$71, DW_AT_decl_file("C:/ti/ccs1200/ccs/tools/compiler/ti-cgt-msp430_21.6.0.LTS
    1865                    .dwattr $C$DW$T$71, DW_AT_decl_line(0x71)
    1866                    .dwattr $C$DW$T$71, DW_AT_decl_column(0x14)
    1867            
    1868            $C$DW$T$72      .dwtag  DW_TAG_typedef
    1869                    .dwattr $C$DW$T$72, DW_AT_name("__uint_fast8_t")
    1870                    .dwattr $C$DW$T$72, DW_AT_type(*$C$DW$T$68)
    1871                    .dwattr $C$DW$T$72, DW_AT_language(DW_LANG_C)
    1872                    .dwattr $C$DW$T$72, DW_AT_decl_file("C:/ti/ccs1200/ccs/tools/compiler/ti-cgt-msp430_21.6.0.LTS
    1873                    .dwattr $C$DW$T$72, DW_AT_decl_line(0x70)
    1874                    .dwattr $C$DW$T$72, DW_AT_decl_column(0x14)
    1875            
    1876            $C$DW$T$73      .dwtag  DW_TAG_typedef
    1877                    .dwattr $C$DW$T$73, DW_AT_name("__uint_least16_t")
    1878                    .dwattr $C$DW$T$73, DW_AT_type(*$C$DW$T$68)
    1879                    .dwattr $C$DW$T$73, DW_AT_language(DW_LANG_C)
    1880                    .dwattr $C$DW$T$73, DW_AT_decl_file("C:/ti/ccs1200/ccs/tools/compiler/ti-cgt-msp430_21.6.0.LTS
    1881                    .dwattr $C$DW$T$73, DW_AT_decl_line(0x75)
    1882                    .dwattr $C$DW$T$73, DW_AT_decl_column(0x14)
    1883            
    1884            $C$DW$T$74      .dwtag  DW_TAG_typedef
    1885                    .dwattr $C$DW$T$74, DW_AT_name("__char16_t")
    1886                    .dwattr $C$DW$T$74, DW_AT_type(*$C$DW$T$73)
    1887                    .dwattr $C$DW$T$74, DW_AT_language(DW_LANG_C)
    1888                    .dwattr $C$DW$T$74, DW_AT_decl_file("C:/ti/ccs1200/ccs/tools/compiler/ti-cgt-msp430_21.6.0.LTS
    1889                    .dwattr $C$DW$T$74, DW_AT_decl_line(0x71)
    1890                    .dwattr $C$DW$T$74, DW_AT_decl_column(0x1a)
    1891            
    1892            $C$DW$T$75      .dwtag  DW_TAG_typedef
    1893                    .dwattr $C$DW$T$75, DW_AT_name("__uintptr_t")
    1894                    .dwattr $C$DW$T$75, DW_AT_type(*$C$DW$T$68)
    1895                    .dwattr $C$DW$T$75, DW_AT_language(DW_LANG_C)
    1896                    .dwattr $C$DW$T$75, DW_AT_decl_file("C:/ti/ccs1200/ccs/tools/compiler/ti-cgt-msp430_21.6.0.LTS
    1897                    .dwattr $C$DW$T$75, DW_AT_decl_line(0x6d)
    1898                    .dwattr $C$DW$T$75, DW_AT_decl_column(0x14)
    1899            
    1900            $C$DW$T$76      .dwtag  DW_TAG_typedef
    1901                    .dwattr $C$DW$T$76, DW_AT_name("__useconds_t")
    1902                    .dwattr $C$DW$T$76, DW_AT_type(*$C$DW$T$11)
    1903                    .dwattr $C$DW$T$76, DW_AT_language(DW_LANG_C)
    1904                    .dwattr $C$DW$T$76, DW_AT_decl_file("C:/ti/ccs1200/ccs/tools/compiler/ti-cgt-msp430_21.6.0.LTS
    1905                    .dwattr $C$DW$T$76, DW_AT_decl_line(0x4e)
    1906                    .dwattr $C$DW$T$76, DW_AT_decl_column(0x16)
    1907            
    1908            $C$DW$T$77      .dwtag  DW_TAG_typedef
    1909                    .dwattr $C$DW$T$77, DW_AT_name("size_t")
    1910                    .dwattr $C$DW$T$77, DW_AT_type(*$C$DW$T$11)
    1911                    .dwattr $C$DW$T$77, DW_AT_language(DW_LANG_C)
    1912                    .dwattr $C$DW$T$77, DW_AT_decl_file("C:/ti/ccs1200/ccs/tools/compiler/ti-cgt-msp430_21.6.0.LTS
    1913                    .dwattr $C$DW$T$77, DW_AT_decl_line(0x4d)
    1914                    .dwattr $C$DW$T$77, DW_AT_decl_column(0x19)
    1915            
MSP430 Assembler PC v21.6.0 Tue Aug  1 23:01:41 2023

Copyright (c) 2003-2018 Texas Instruments Incorporated
C:\Users\eas0035\AppData\Local\Temp\{5BCD9170-B37C-44F2-A877-1E9220DDA60C} PAGE   42

    1916            $C$DW$T$12      .dwtag  DW_TAG_base_type
    1917                    .dwattr $C$DW$T$12, DW_AT_encoding(DW_ATE_signed)
    1918                    .dwattr $C$DW$T$12, DW_AT_name("long")
    1919                    .dwattr $C$DW$T$12, DW_AT_byte_size(0x04)
    1920            
    1921            $C$DW$T$80      .dwtag  DW_TAG_typedef
    1922                    .dwattr $C$DW$T$80, DW_AT_name("__int32_t")
    1923                    .dwattr $C$DW$T$80, DW_AT_type(*$C$DW$T$12)
    1924                    .dwattr $C$DW$T$80, DW_AT_language(DW_LANG_C)
    1925                    .dwattr $C$DW$T$80, DW_AT_decl_file("C:/ti/ccs1200/ccs/tools/compiler/ti-cgt-msp430_21.6.0.LTS
    1926                    .dwattr $C$DW$T$80, DW_AT_decl_line(0x3a)
    1927                    .dwattr $C$DW$T$80, DW_AT_decl_column(0x10)
    1928            
    1929            $C$DW$T$81      .dwtag  DW_TAG_typedef
    1930                    .dwattr $C$DW$T$81, DW_AT_name("__blksize_t")
    1931                    .dwattr $C$DW$T$81, DW_AT_type(*$C$DW$T$80)
    1932                    .dwattr $C$DW$T$81, DW_AT_language(DW_LANG_C)
    1933                    .dwattr $C$DW$T$81, DW_AT_decl_file("C:/ti/ccs1200/ccs/tools/compiler/ti-cgt-msp430_21.6.0.LTS
    1934                    .dwattr $C$DW$T$81, DW_AT_decl_line(0x2f)
    1935                    .dwattr $C$DW$T$81, DW_AT_decl_column(0x13)
    1936            
    1937            $C$DW$T$82      .dwtag  DW_TAG_typedef
    1938                    .dwattr $C$DW$T$82, DW_AT_name("__clockid_t")
    1939                    .dwattr $C$DW$T$82, DW_AT_type(*$C$DW$T$80)
    1940                    .dwattr $C$DW$T$82, DW_AT_language(DW_LANG_C)
    1941                    .dwattr $C$DW$T$82, DW_AT_decl_file("C:/ti/ccs1200/ccs/tools/compiler/ti-cgt-msp430_21.6.0.LTS
    1942                    .dwattr $C$DW$T$82, DW_AT_decl_line(0x31)
    1943                    .dwattr $C$DW$T$82, DW_AT_decl_column(0x13)
    1944            
    1945            $C$DW$T$83      .dwtag  DW_TAG_typedef
    1946                    .dwattr $C$DW$T$83, DW_AT_name("__critical_t")
    1947                    .dwattr $C$DW$T$83, DW_AT_type(*$C$DW$T$80)
    1948                    .dwattr $C$DW$T$83, DW_AT_language(DW_LANG_C)
    1949                    .dwattr $C$DW$T$83, DW_AT_decl_file("C:/ti/ccs1200/ccs/tools/compiler/ti-cgt-msp430_21.6.0.LTS
    1950                    .dwattr $C$DW$T$83, DW_AT_decl_line(0x4b)
    1951                    .dwattr $C$DW$T$83, DW_AT_decl_column(0x13)
    1952            
    1953            $C$DW$T$84      .dwtag  DW_TAG_typedef
    1954                    .dwattr $C$DW$T$84, DW_AT_name("__int_fast32_t")
    1955                    .dwattr $C$DW$T$84, DW_AT_type(*$C$DW$T$80)
    1956                    .dwattr $C$DW$T$84, DW_AT_language(DW_LANG_C)
    1957                    .dwattr $C$DW$T$84, DW_AT_decl_file("C:/ti/ccs1200/ccs/tools/compiler/ti-cgt-msp430_21.6.0.LTS
    1958                    .dwattr $C$DW$T$84, DW_AT_decl_line(0x58)
    1959                    .dwattr $C$DW$T$84, DW_AT_decl_column(0x13)
    1960            
    1961            $C$DW$T$85      .dwtag  DW_TAG_typedef
    1962                    .dwattr $C$DW$T$85, DW_AT_name("__int_least32_t")
    1963                    .dwattr $C$DW$T$85, DW_AT_type(*$C$DW$T$80)
    1964                    .dwattr $C$DW$T$85, DW_AT_language(DW_LANG_C)
    1965                    .dwattr $C$DW$T$85, DW_AT_decl_file("C:/ti/ccs1200/ccs/tools/compiler/ti-cgt-msp430_21.6.0.LTS
    1966                    .dwattr $C$DW$T$85, DW_AT_decl_line(0x5c)
    1967                    .dwattr $C$DW$T$85, DW_AT_decl_column(0x13)
    1968            
    1969            $C$DW$T$86      .dwtag  DW_TAG_typedef
    1970                    .dwattr $C$DW$T$86, DW_AT_name("__intfptr_t")
MSP430 Assembler PC v21.6.0 Tue Aug  1 23:01:41 2023

Copyright (c) 2003-2018 Texas Instruments Incorporated
C:\Users\eas0035\AppData\Local\Temp\{5BCD9170-B37C-44F2-A877-1E9220DDA60C} PAGE   43

    1971                    .dwattr $C$DW$T$86, DW_AT_type(*$C$DW$T$80)
    1972                    .dwattr $C$DW$T$86, DW_AT_language(DW_LANG_C)
    1973                    .dwattr $C$DW$T$86, DW_AT_decl_file("C:/ti/ccs1200/ccs/tools/compiler/ti-cgt-msp430_21.6.0.LTS
    1974                    .dwattr $C$DW$T$86, DW_AT_decl_line(0x4e)
    1975                    .dwattr $C$DW$T$86, DW_AT_decl_column(0x13)
    1976            
    1977            $C$DW$T$87      .dwtag  DW_TAG_typedef
    1978                    .dwattr $C$DW$T$87, DW_AT_name("__lwpid_t")
    1979                    .dwattr $C$DW$T$87, DW_AT_type(*$C$DW$T$80)
    1980                    .dwattr $C$DW$T$87, DW_AT_language(DW_LANG_C)
    1981                    .dwattr $C$DW$T$87, DW_AT_decl_file("C:/ti/ccs1200/ccs/tools/compiler/ti-cgt-msp430_21.6.0.LTS
    1982                    .dwattr $C$DW$T$87, DW_AT_decl_line(0x39)
    1983                    .dwattr $C$DW$T$87, DW_AT_decl_column(0x13)
    1984            
    1985            $C$DW$T$88      .dwtag  DW_TAG_typedef
    1986                    .dwattr $C$DW$T$88, DW_AT_name("__pid_t")
    1987                    .dwattr $C$DW$T$88, DW_AT_type(*$C$DW$T$80)
    1988                    .dwattr $C$DW$T$88, DW_AT_language(DW_LANG_C)
    1989                    .dwattr $C$DW$T$88, DW_AT_decl_file("C:/ti/ccs1200/ccs/tools/compiler/ti-cgt-msp430_21.6.0.LTS
    1990                    .dwattr $C$DW$T$88, DW_AT_decl_line(0x40)
    1991                    .dwattr $C$DW$T$88, DW_AT_decl_column(0x13)
    1992            
    1993            $C$DW$T$89      .dwtag  DW_TAG_typedef
    1994                    .dwattr $C$DW$T$89, DW_AT_name("__segsz_t")
    1995                    .dwattr $C$DW$T$89, DW_AT_type(*$C$DW$T$80)
    1996                    .dwattr $C$DW$T$89, DW_AT_language(DW_LANG_C)
    1997                    .dwattr $C$DW$T$89, DW_AT_decl_file("C:/ti/ccs1200/ccs/tools/compiler/ti-cgt-msp430_21.6.0.LTS
    1998                    .dwattr $C$DW$T$89, DW_AT_decl_line(0x60)
    1999                    .dwattr $C$DW$T$89, DW_AT_decl_column(0x13)
    2000            
    2001            $C$DW$T$90      .dwtag  DW_TAG_typedef
    2002                    .dwattr $C$DW$T$90, DW_AT_name("__ssize_t")
    2003                    .dwattr $C$DW$T$90, DW_AT_type(*$C$DW$T$80)
    2004                    .dwattr $C$DW$T$90, DW_AT_language(DW_LANG_C)
    2005                    .dwattr $C$DW$T$90, DW_AT_decl_file("C:/ti/ccs1200/ccs/tools/compiler/ti-cgt-msp430_21.6.0.LTS
    2006                    .dwattr $C$DW$T$90, DW_AT_decl_line(0x62)
    2007                    .dwattr $C$DW$T$90, DW_AT_decl_column(0x13)
    2008            
    2009            $C$DW$T$91      .dwtag  DW_TAG_typedef
    2010                    .dwattr $C$DW$T$91, DW_AT_name("__key_t")
    2011                    .dwattr $C$DW$T$91, DW_AT_type(*$C$DW$T$12)
    2012                    .dwattr $C$DW$T$91, DW_AT_language(DW_LANG_C)
    2013                    .dwattr $C$DW$T$91, DW_AT_decl_file("C:/ti/ccs1200/ccs/tools/compiler/ti-cgt-msp430_21.6.0.LTS
    2014                    .dwattr $C$DW$T$91, DW_AT_decl_line(0x38)
    2015                    .dwattr $C$DW$T$91, DW_AT_decl_column(0x0f)
    2016            
    2017            $C$DW$T$92      .dwtag  DW_TAG_typedef
    2018                    .dwattr $C$DW$T$92, DW_AT_name("__suseconds_t")
    2019                    .dwattr $C$DW$T$92, DW_AT_type(*$C$DW$T$12)
    2020                    .dwattr $C$DW$T$92, DW_AT_language(DW_LANG_C)
    2021                    .dwattr $C$DW$T$92, DW_AT_decl_file("C:/ti/ccs1200/ccs/tools/compiler/ti-cgt-msp430_21.6.0.LTS
    2022                    .dwattr $C$DW$T$92, DW_AT_decl_line(0x4a)
    2023                    .dwattr $C$DW$T$92, DW_AT_decl_column(0x0f)
    2024            
    2025            $C$DW$T$93      .dwtag  DW_TAG_typedef
MSP430 Assembler PC v21.6.0 Tue Aug  1 23:01:41 2023

Copyright (c) 2003-2018 Texas Instruments Incorporated
C:\Users\eas0035\AppData\Local\Temp\{5BCD9170-B37C-44F2-A877-1E9220DDA60C} PAGE   44

    2026                    .dwattr $C$DW$T$93, DW_AT_name("_off_t")
    2027                    .dwattr $C$DW$T$93, DW_AT_type(*$C$DW$T$12)
    2028                    .dwattr $C$DW$T$93, DW_AT_language(DW_LANG_C)
    2029                    .dwattr $C$DW$T$93, DW_AT_decl_file("C:/ti/ccs1200/ccs/tools/compiler/ti-cgt-msp430_21.6.0.LTS
    2030                    .dwattr $C$DW$T$93, DW_AT_decl_line(0x8d)
    2031                    .dwattr $C$DW$T$93, DW_AT_decl_column(0x12)
    2032            
    2033            $C$DW$T$94      .dwtag  DW_TAG_typedef
    2034                    .dwattr $C$DW$T$94, DW_AT_name("__off_t")
    2035                    .dwattr $C$DW$T$94, DW_AT_type(*$C$DW$T$93)
    2036                    .dwattr $C$DW$T$94, DW_AT_language(DW_LANG_C)
    2037                    .dwattr $C$DW$T$94, DW_AT_decl_file("C:/ti/ccs1200/ccs/tools/compiler/ti-cgt-msp430_21.6.0.LTS
    2038                    .dwattr $C$DW$T$94, DW_AT_decl_line(0x3e)
    2039                    .dwattr $C$DW$T$94, DW_AT_decl_column(0x18)
    2040            
    2041            $C$DW$T$95      .dwtag  DW_TAG_typedef
    2042                    .dwattr $C$DW$T$95, DW_AT_name("fpos_t")
    2043                    .dwattr $C$DW$T$95, DW_AT_type(*$C$DW$T$12)
    2044                    .dwattr $C$DW$T$95, DW_AT_language(DW_LANG_C)
    2045                    .dwattr $C$DW$T$95, DW_AT_decl_file("C:/ti/ccs1200/ccs/tools/compiler/ti-cgt-msp430_21.6.0.LTS
    2046                    .dwattr $C$DW$T$95, DW_AT_decl_line(0x6b)
    2047                    .dwattr $C$DW$T$95, DW_AT_decl_column(0x0e)
    2048            
    2049            $C$DW$T$96      .dwtag  DW_TAG_typedef
    2050                    .dwattr $C$DW$T$96, DW_AT_name("off_t")
    2051                    .dwattr $C$DW$T$96, DW_AT_type(*$C$DW$T$12)
    2052                    .dwattr $C$DW$T$96, DW_AT_language(DW_LANG_C)
    2053                    .dwattr $C$DW$T$96, DW_AT_decl_file("C:/ti/ccs1200/ccs/tools/compiler/ti-cgt-msp430_21.6.0.LTS
    2054                    .dwattr $C$DW$T$96, DW_AT_decl_line(0x74)
    2055                    .dwattr $C$DW$T$96, DW_AT_decl_column(0x0e)
    2056            
    2057            $C$DW$T$13      .dwtag  DW_TAG_base_type
    2058                    .dwattr $C$DW$T$13, DW_AT_encoding(DW_ATE_unsigned)
    2059                    .dwattr $C$DW$T$13, DW_AT_name("unsigned long")
    2060                    .dwattr $C$DW$T$13, DW_AT_byte_size(0x04)
    2061            
    2062            $C$DW$T$97      .dwtag  DW_TAG_typedef
    2063                    .dwattr $C$DW$T$97, DW_AT_name("__uint32_t")
    2064                    .dwattr $C$DW$T$97, DW_AT_type(*$C$DW$T$13)
    2065                    .dwattr $C$DW$T$97, DW_AT_language(DW_LANG_C)
    2066                    .dwattr $C$DW$T$97, DW_AT_decl_file("C:/ti/ccs1200/ccs/tools/compiler/ti-cgt-msp430_21.6.0.LTS
    2067                    .dwattr $C$DW$T$97, DW_AT_decl_line(0x3b)
    2068                    .dwattr $C$DW$T$97, DW_AT_decl_column(0x18)
    2069            
    2070            $C$DW$T$98      .dwtag  DW_TAG_typedef
    2071                    .dwattr $C$DW$T$98, DW_AT_name("__clock_t")
    2072                    .dwattr $C$DW$T$98, DW_AT_type(*$C$DW$T$97)
    2073                    .dwattr $C$DW$T$98, DW_AT_language(DW_LANG_C)
    2074                    .dwattr $C$DW$T$98, DW_AT_decl_file("C:/ti/ccs1200/ccs/tools/compiler/ti-cgt-msp430_21.6.0.LTS
    2075                    .dwattr $C$DW$T$98, DW_AT_decl_line(0x4a)
    2076                    .dwattr $C$DW$T$98, DW_AT_decl_column(0x14)
    2077            
    2078            $C$DW$T$99      .dwtag  DW_TAG_typedef
    2079                    .dwattr $C$DW$T$99, DW_AT_name("__fflags_t")
    2080                    .dwattr $C$DW$T$99, DW_AT_type(*$C$DW$T$97)
MSP430 Assembler PC v21.6.0 Tue Aug  1 23:01:41 2023

Copyright (c) 2003-2018 Texas Instruments Incorporated
C:\Users\eas0035\AppData\Local\Temp\{5BCD9170-B37C-44F2-A877-1E9220DDA60C} PAGE   45

    2081                    .dwattr $C$DW$T$99, DW_AT_language(DW_LANG_C)
    2082                    .dwattr $C$DW$T$99, DW_AT_decl_file("C:/ti/ccs1200/ccs/tools/compiler/ti-cgt-msp430_21.6.0.LTS
    2083                    .dwattr $C$DW$T$99, DW_AT_decl_line(0x32)
    2084                    .dwattr $C$DW$T$99, DW_AT_decl_column(0x14)
    2085            
    2086            $C$DW$T$100     .dwtag  DW_TAG_typedef
    2087                    .dwattr $C$DW$T$100, DW_AT_name("__fixpt_t")
    2088                    .dwattr $C$DW$T$100, DW_AT_type(*$C$DW$T$97)
    2089                    .dwattr $C$DW$T$100, DW_AT_language(DW_LANG_C)
    2090                    .dwattr $C$DW$T$100, DW_AT_decl_file("C:/ti/ccs1200/ccs/tools/compiler/ti-cgt-msp430_21.6.0.LT
    2091                    .dwattr $C$DW$T$100, DW_AT_decl_line(0x81)
    2092                    .dwattr $C$DW$T$100, DW_AT_decl_column(0x14)
    2093            
    2094            $C$DW$T$101     .dwtag  DW_TAG_typedef
    2095                    .dwattr $C$DW$T$101, DW_AT_name("__gid_t")
    2096                    .dwattr $C$DW$T$101, DW_AT_type(*$C$DW$T$97)
    2097                    .dwattr $C$DW$T$101, DW_AT_language(DW_LANG_C)
    2098                    .dwattr $C$DW$T$101, DW_AT_decl_file("C:/ti/ccs1200/ccs/tools/compiler/ti-cgt-msp430_21.6.0.LT
    2099                    .dwattr $C$DW$T$101, DW_AT_decl_line(0x35)
    2100                    .dwattr $C$DW$T$101, DW_AT_decl_column(0x14)
    2101            
    2102            $C$DW$T$102     .dwtag  DW_TAG_typedef
    2103                    .dwattr $C$DW$T$102, DW_AT_name("__socklen_t")
    2104                    .dwattr $C$DW$T$102, DW_AT_type(*$C$DW$T$97)
    2105                    .dwattr $C$DW$T$102, DW_AT_language(DW_LANG_C)
    2106                    .dwattr $C$DW$T$102, DW_AT_decl_file("C:/ti/ccs1200/ccs/tools/compiler/ti-cgt-msp430_21.6.0.LT
    2107                    .dwattr $C$DW$T$102, DW_AT_decl_line(0x49)
    2108                    .dwattr $C$DW$T$102, DW_AT_decl_column(0x14)
    2109            
    2110            $C$DW$T$103     .dwtag  DW_TAG_typedef
    2111                    .dwattr $C$DW$T$103, DW_AT_name("__time_t")
    2112                    .dwattr $C$DW$T$103, DW_AT_type(*$C$DW$T$97)
    2113                    .dwattr $C$DW$T$103, DW_AT_language(DW_LANG_C)
    2114                    .dwattr $C$DW$T$103, DW_AT_decl_file("C:/ti/ccs1200/ccs/tools/compiler/ti-cgt-msp430_21.6.0.LT
    2115                    .dwattr $C$DW$T$103, DW_AT_decl_line(0x66)
    2116                    .dwattr $C$DW$T$103, DW_AT_decl_column(0x19)
    2117            
    2118            $C$DW$T$104     .dwtag  DW_TAG_typedef
    2119                    .dwattr $C$DW$T$104, DW_AT_name("__uid_t")
    2120                    .dwattr $C$DW$T$104, DW_AT_type(*$C$DW$T$97)
    2121                    .dwattr $C$DW$T$104, DW_AT_language(DW_LANG_C)
    2122                    .dwattr $C$DW$T$104, DW_AT_decl_file("C:/ti/ccs1200/ccs/tools/compiler/ti-cgt-msp430_21.6.0.LT
    2123                    .dwattr $C$DW$T$104, DW_AT_decl_line(0x4d)
    2124                    .dwattr $C$DW$T$104, DW_AT_decl_column(0x14)
    2125            
    2126            $C$DW$T$105     .dwtag  DW_TAG_typedef
    2127                    .dwattr $C$DW$T$105, DW_AT_name("__uint_fast32_t")
    2128                    .dwattr $C$DW$T$105, DW_AT_type(*$C$DW$T$97)
    2129                    .dwattr $C$DW$T$105, DW_AT_language(DW_LANG_C)
    2130                    .dwattr $C$DW$T$105, DW_AT_decl_file("C:/ti/ccs1200/ccs/tools/compiler/ti-cgt-msp430_21.6.0.LT
    2131                    .dwattr $C$DW$T$105, DW_AT_decl_line(0x72)
    2132                    .dwattr $C$DW$T$105, DW_AT_decl_column(0x14)
    2133            
    2134            $C$DW$T$106     .dwtag  DW_TAG_typedef
    2135                    .dwattr $C$DW$T$106, DW_AT_name("__uint_least32_t")
MSP430 Assembler PC v21.6.0 Tue Aug  1 23:01:41 2023

Copyright (c) 2003-2018 Texas Instruments Incorporated
C:\Users\eas0035\AppData\Local\Temp\{5BCD9170-B37C-44F2-A877-1E9220DDA60C} PAGE   46

    2136                    .dwattr $C$DW$T$106, DW_AT_type(*$C$DW$T$97)
    2137                    .dwattr $C$DW$T$106, DW_AT_language(DW_LANG_C)
    2138                    .dwattr $C$DW$T$106, DW_AT_decl_file("C:/ti/ccs1200/ccs/tools/compiler/ti-cgt-msp430_21.6.0.LT
    2139                    .dwattr $C$DW$T$106, DW_AT_decl_line(0x76)
    2140                    .dwattr $C$DW$T$106, DW_AT_decl_column(0x14)
    2141            
    2142            $C$DW$T$107     .dwtag  DW_TAG_typedef
    2143                    .dwattr $C$DW$T$107, DW_AT_name("__char32_t")
    2144                    .dwattr $C$DW$T$107, DW_AT_type(*$C$DW$T$106)
    2145                    .dwattr $C$DW$T$107, DW_AT_language(DW_LANG_C)
    2146                    .dwattr $C$DW$T$107, DW_AT_decl_file("C:/ti/ccs1200/ccs/tools/compiler/ti-cgt-msp430_21.6.0.LT
    2147                    .dwattr $C$DW$T$107, DW_AT_decl_line(0x72)
    2148                    .dwattr $C$DW$T$107, DW_AT_decl_column(0x1a)
    2149            
    2150            $C$DW$T$108     .dwtag  DW_TAG_typedef
    2151                    .dwattr $C$DW$T$108, DW_AT_name("__uintfptr_t")
    2152                    .dwattr $C$DW$T$108, DW_AT_type(*$C$DW$T$97)
    2153                    .dwattr $C$DW$T$108, DW_AT_language(DW_LANG_C)
    2154                    .dwattr $C$DW$T$108, DW_AT_decl_file("C:/ti/ccs1200/ccs/tools/compiler/ti-cgt-msp430_21.6.0.LT
    2155                    .dwattr $C$DW$T$108, DW_AT_decl_line(0x68)
    2156                    .dwattr $C$DW$T$108, DW_AT_decl_column(0x14)
    2157            
    2158            $C$DW$T$109     .dwtag  DW_TAG_typedef
    2159                    .dwattr $C$DW$T$109, DW_AT_name("__vm_offset_t")
    2160                    .dwattr $C$DW$T$109, DW_AT_type(*$C$DW$T$97)
    2161                    .dwattr $C$DW$T$109, DW_AT_language(DW_LANG_C)
    2162                    .dwattr $C$DW$T$109, DW_AT_decl_file("C:/ti/ccs1200/ccs/tools/compiler/ti-cgt-msp430_21.6.0.LT
    2163                    .dwattr $C$DW$T$109, DW_AT_decl_line(0x79)
    2164                    .dwattr $C$DW$T$109, DW_AT_decl_column(0x14)
    2165            
    2166            $C$DW$T$110     .dwtag  DW_TAG_typedef
    2167                    .dwattr $C$DW$T$110, DW_AT_name("__vm_paddr_t")
    2168                    .dwattr $C$DW$T$110, DW_AT_type(*$C$DW$T$97)
    2169                    .dwattr $C$DW$T$110, DW_AT_language(DW_LANG_C)
    2170                    .dwattr $C$DW$T$110, DW_AT_decl_file("C:/ti/ccs1200/ccs/tools/compiler/ti-cgt-msp430_21.6.0.LT
    2171                    .dwattr $C$DW$T$110, DW_AT_decl_line(0x7a)
    2172                    .dwattr $C$DW$T$110, DW_AT_decl_column(0x14)
    2173            
    2174            $C$DW$T$111     .dwtag  DW_TAG_typedef
    2175                    .dwattr $C$DW$T$111, DW_AT_name("__vm_size_t")
    2176                    .dwattr $C$DW$T$111, DW_AT_type(*$C$DW$T$97)
    2177                    .dwattr $C$DW$T$111, DW_AT_language(DW_LANG_C)
    2178                    .dwattr $C$DW$T$111, DW_AT_decl_file("C:/ti/ccs1200/ccs/tools/compiler/ti-cgt-msp430_21.6.0.LT
    2179                    .dwattr $C$DW$T$111, DW_AT_decl_line(0x7b)
    2180                    .dwattr $C$DW$T$111, DW_AT_decl_column(0x14)
    2181            
    2182            $C$DW$T$14      .dwtag  DW_TAG_base_type
    2183                    .dwattr $C$DW$T$14, DW_AT_encoding(DW_ATE_signed)
    2184                    .dwattr $C$DW$T$14, DW_AT_name("long long")
    2185                    .dwattr $C$DW$T$14, DW_AT_byte_size(0x08)
    2186            
    2187            $C$DW$T$112     .dwtag  DW_TAG_typedef
    2188                    .dwattr $C$DW$T$112, DW_AT_name("__int64_t")
    2189                    .dwattr $C$DW$T$112, DW_AT_type(*$C$DW$T$14)
    2190                    .dwattr $C$DW$T$112, DW_AT_language(DW_LANG_C)
MSP430 Assembler PC v21.6.0 Tue Aug  1 23:01:41 2023

Copyright (c) 2003-2018 Texas Instruments Incorporated
C:\Users\eas0035\AppData\Local\Temp\{5BCD9170-B37C-44F2-A877-1E9220DDA60C} PAGE   47

    2191                    .dwattr $C$DW$T$112, DW_AT_decl_file("C:/ti/ccs1200/ccs/tools/compiler/ti-cgt-msp430_21.6.0.LT
    2192                    .dwattr $C$DW$T$112, DW_AT_decl_line(0x40)
    2193                    .dwattr $C$DW$T$112, DW_AT_decl_column(0x14)
    2194            
    2195            $C$DW$T$113     .dwtag  DW_TAG_typedef
    2196                    .dwattr $C$DW$T$113, DW_AT_name("__blkcnt_t")
    2197                    .dwattr $C$DW$T$113, DW_AT_type(*$C$DW$T$112)
    2198                    .dwattr $C$DW$T$113, DW_AT_language(DW_LANG_C)
    2199                    .dwattr $C$DW$T$113, DW_AT_decl_file("C:/ti/ccs1200/ccs/tools/compiler/ti-cgt-msp430_21.6.0.LT
    2200                    .dwattr $C$DW$T$113, DW_AT_decl_line(0x30)
    2201                    .dwattr $C$DW$T$113, DW_AT_decl_column(0x13)
    2202            
    2203            $C$DW$T$114     .dwtag  DW_TAG_typedef
    2204                    .dwattr $C$DW$T$114, DW_AT_name("__id_t")
    2205                    .dwattr $C$DW$T$114, DW_AT_type(*$C$DW$T$112)
    2206                    .dwattr $C$DW$T$114, DW_AT_language(DW_LANG_C)
    2207                    .dwattr $C$DW$T$114, DW_AT_decl_file("C:/ti/ccs1200/ccs/tools/compiler/ti-cgt-msp430_21.6.0.LT
    2208                    .dwattr $C$DW$T$114, DW_AT_decl_line(0x36)
    2209                    .dwattr $C$DW$T$114, DW_AT_decl_column(0x13)
    2210            
    2211            $C$DW$T$115     .dwtag  DW_TAG_typedef
    2212                    .dwattr $C$DW$T$115, DW_AT_name("__int_fast64_t")
    2213                    .dwattr $C$DW$T$115, DW_AT_type(*$C$DW$T$112)
    2214                    .dwattr $C$DW$T$115, DW_AT_language(DW_LANG_C)
    2215                    .dwattr $C$DW$T$115, DW_AT_decl_file("C:/ti/ccs1200/ccs/tools/compiler/ti-cgt-msp430_21.6.0.LT
    2216                    .dwattr $C$DW$T$115, DW_AT_decl_line(0x59)
    2217                    .dwattr $C$DW$T$115, DW_AT_decl_column(0x13)
    2218            
    2219            $C$DW$T$116     .dwtag  DW_TAG_typedef
    2220                    .dwattr $C$DW$T$116, DW_AT_name("__int_least64_t")
    2221                    .dwattr $C$DW$T$116, DW_AT_type(*$C$DW$T$112)
    2222                    .dwattr $C$DW$T$116, DW_AT_language(DW_LANG_C)
    2223                    .dwattr $C$DW$T$116, DW_AT_decl_file("C:/ti/ccs1200/ccs/tools/compiler/ti-cgt-msp430_21.6.0.LT
    2224                    .dwattr $C$DW$T$116, DW_AT_decl_line(0x5d)
    2225                    .dwattr $C$DW$T$116, DW_AT_decl_column(0x13)
    2226            
    2227            $C$DW$T$117     .dwtag  DW_TAG_typedef
    2228                    .dwattr $C$DW$T$117, DW_AT_name("__intmax_t")
    2229                    .dwattr $C$DW$T$117, DW_AT_type(*$C$DW$T$112)
    2230                    .dwattr $C$DW$T$117, DW_AT_language(DW_LANG_C)
    2231                    .dwattr $C$DW$T$117, DW_AT_decl_file("C:/ti/ccs1200/ccs/tools/compiler/ti-cgt-msp430_21.6.0.LT
    2232                    .dwattr $C$DW$T$117, DW_AT_decl_line(0x4f)
    2233                    .dwattr $C$DW$T$117, DW_AT_decl_column(0x13)
    2234            
    2235            $C$DW$T$118     .dwtag  DW_TAG_typedef
    2236                    .dwattr $C$DW$T$118, DW_AT_name("__off64_t")
    2237                    .dwattr $C$DW$T$118, DW_AT_type(*$C$DW$T$112)
    2238                    .dwattr $C$DW$T$118, DW_AT_language(DW_LANG_C)
    2239                    .dwattr $C$DW$T$118, DW_AT_decl_file("C:/ti/ccs1200/ccs/tools/compiler/ti-cgt-msp430_21.6.0.LT
    2240                    .dwattr $C$DW$T$118, DW_AT_decl_line(0x3f)
    2241                    .dwattr $C$DW$T$118, DW_AT_decl_column(0x13)
    2242            
    2243            $C$DW$T$119     .dwtag  DW_TAG_typedef
    2244                    .dwattr $C$DW$T$119, DW_AT_name("__rlim_t")
    2245                    .dwattr $C$DW$T$119, DW_AT_type(*$C$DW$T$112)
MSP430 Assembler PC v21.6.0 Tue Aug  1 23:01:41 2023

Copyright (c) 2003-2018 Texas Instruments Incorporated
C:\Users\eas0035\AppData\Local\Temp\{5BCD9170-B37C-44F2-A877-1E9220DDA60C} PAGE   48

    2246                    .dwattr $C$DW$T$119, DW_AT_language(DW_LANG_C)
    2247                    .dwattr $C$DW$T$119, DW_AT_decl_file("C:/ti/ccs1200/ccs/tools/compiler/ti-cgt-msp430_21.6.0.LT
    2248                    .dwattr $C$DW$T$119, DW_AT_decl_line(0x41)
    2249                    .dwattr $C$DW$T$119, DW_AT_decl_column(0x13)
    2250            
    2251            $C$DW$T$15      .dwtag  DW_TAG_base_type
    2252                    .dwattr $C$DW$T$15, DW_AT_encoding(DW_ATE_unsigned)
    2253                    .dwattr $C$DW$T$15, DW_AT_name("unsigned long long")
    2254                    .dwattr $C$DW$T$15, DW_AT_byte_size(0x08)
    2255            
    2256            $C$DW$T$120     .dwtag  DW_TAG_typedef
    2257                    .dwattr $C$DW$T$120, DW_AT_name("__uint64_t")
    2258                    .dwattr $C$DW$T$120, DW_AT_type(*$C$DW$T$15)
    2259                    .dwattr $C$DW$T$120, DW_AT_language(DW_LANG_C)
    2260                    .dwattr $C$DW$T$120, DW_AT_decl_file("C:/ti/ccs1200/ccs/tools/compiler/ti-cgt-msp430_21.6.0.LT
    2261                    .dwattr $C$DW$T$120, DW_AT_decl_line(0x45)
    2262                    .dwattr $C$DW$T$120, DW_AT_decl_column(0x1c)
    2263            
    2264            $C$DW$T$121     .dwtag  DW_TAG_typedef
    2265                    .dwattr $C$DW$T$121, DW_AT_name("__dev_t")
    2266                    .dwattr $C$DW$T$121, DW_AT_type(*$C$DW$T$120)
    2267                    .dwattr $C$DW$T$121, DW_AT_language(DW_LANG_C)
    2268                    .dwattr $C$DW$T$121, DW_AT_decl_file("C:/ti/ccs1200/ccs/tools/compiler/ti-cgt-msp430_21.6.0.LT
    2269                    .dwattr $C$DW$T$121, DW_AT_decl_line(0x7f)
    2270                    .dwattr $C$DW$T$121, DW_AT_decl_column(0x14)
    2271            
    2272            $C$DW$T$122     .dwtag  DW_TAG_typedef
    2273                    .dwattr $C$DW$T$122, DW_AT_name("__fsblkcnt_t")
    2274                    .dwattr $C$DW$T$122, DW_AT_type(*$C$DW$T$120)
    2275                    .dwattr $C$DW$T$122, DW_AT_language(DW_LANG_C)
    2276                    .dwattr $C$DW$T$122, DW_AT_decl_file("C:/ti/ccs1200/ccs/tools/compiler/ti-cgt-msp430_21.6.0.LT
    2277                    .dwattr $C$DW$T$122, DW_AT_decl_line(0x33)
    2278                    .dwattr $C$DW$T$122, DW_AT_decl_column(0x14)
    2279            
    2280            $C$DW$T$123     .dwtag  DW_TAG_typedef
    2281                    .dwattr $C$DW$T$123, DW_AT_name("__fsfilcnt_t")
    2282                    .dwattr $C$DW$T$123, DW_AT_type(*$C$DW$T$120)
    2283                    .dwattr $C$DW$T$123, DW_AT_language(DW_LANG_C)
    2284                    .dwattr $C$DW$T$123, DW_AT_decl_file("C:/ti/ccs1200/ccs/tools/compiler/ti-cgt-msp430_21.6.0.LT
    2285                    .dwattr $C$DW$T$123, DW_AT_decl_line(0x34)
    2286                    .dwattr $C$DW$T$123, DW_AT_decl_column(0x14)
    2287            
    2288            $C$DW$T$124     .dwtag  DW_TAG_typedef
    2289                    .dwattr $C$DW$T$124, DW_AT_name("__ino_t")
    2290                    .dwattr $C$DW$T$124, DW_AT_type(*$C$DW$T$120)
    2291                    .dwattr $C$DW$T$124, DW_AT_language(DW_LANG_C)
    2292                    .dwattr $C$DW$T$124, DW_AT_decl_file("C:/ti/ccs1200/ccs/tools/compiler/ti-cgt-msp430_21.6.0.LT
    2293                    .dwattr $C$DW$T$124, DW_AT_decl_line(0x37)
    2294                    .dwattr $C$DW$T$124, DW_AT_decl_column(0x14)
    2295            
    2296            $C$DW$T$125     .dwtag  DW_TAG_typedef
    2297                    .dwattr $C$DW$T$125, DW_AT_name("__nlink_t")
    2298                    .dwattr $C$DW$T$125, DW_AT_type(*$C$DW$T$120)
    2299                    .dwattr $C$DW$T$125, DW_AT_language(DW_LANG_C)
    2300                    .dwattr $C$DW$T$125, DW_AT_decl_file("C:/ti/ccs1200/ccs/tools/compiler/ti-cgt-msp430_21.6.0.LT
MSP430 Assembler PC v21.6.0 Tue Aug  1 23:01:41 2023

Copyright (c) 2003-2018 Texas Instruments Incorporated
C:\Users\eas0035\AppData\Local\Temp\{5BCD9170-B37C-44F2-A877-1E9220DDA60C} PAGE   49

    2301                    .dwattr $C$DW$T$125, DW_AT_decl_line(0x3d)
    2302                    .dwattr $C$DW$T$125, DW_AT_decl_column(0x14)
    2303            
    2304            $C$DW$T$126     .dwtag  DW_TAG_typedef
    2305                    .dwattr $C$DW$T$126, DW_AT_name("__uint_fast64_t")
    2306                    .dwattr $C$DW$T$126, DW_AT_type(*$C$DW$T$120)
    2307                    .dwattr $C$DW$T$126, DW_AT_language(DW_LANG_C)
    2308                    .dwattr $C$DW$T$126, DW_AT_decl_file("C:/ti/ccs1200/ccs/tools/compiler/ti-cgt-msp430_21.6.0.LT
    2309                    .dwattr $C$DW$T$126, DW_AT_decl_line(0x73)
    2310                    .dwattr $C$DW$T$126, DW_AT_decl_column(0x14)
    2311            
    2312            $C$DW$T$127     .dwtag  DW_TAG_typedef
    2313                    .dwattr $C$DW$T$127, DW_AT_name("__uint_least64_t")
    2314                    .dwattr $C$DW$T$127, DW_AT_type(*$C$DW$T$120)
    2315                    .dwattr $C$DW$T$127, DW_AT_language(DW_LANG_C)
    2316                    .dwattr $C$DW$T$127, DW_AT_decl_file("C:/ti/ccs1200/ccs/tools/compiler/ti-cgt-msp430_21.6.0.LT
    2317                    .dwattr $C$DW$T$127, DW_AT_decl_line(0x77)
    2318                    .dwattr $C$DW$T$127, DW_AT_decl_column(0x14)
    2319            
    2320            $C$DW$T$128     .dwtag  DW_TAG_typedef
    2321                    .dwattr $C$DW$T$128, DW_AT_name("__uintmax_t")
    2322                    .dwattr $C$DW$T$128, DW_AT_type(*$C$DW$T$120)
    2323                    .dwattr $C$DW$T$128, DW_AT_language(DW_LANG_C)
    2324                    .dwattr $C$DW$T$128, DW_AT_decl_file("C:/ti/ccs1200/ccs/tools/compiler/ti-cgt-msp430_21.6.0.LT
    2325                    .dwattr $C$DW$T$128, DW_AT_decl_line(0x69)
    2326                    .dwattr $C$DW$T$128, DW_AT_decl_column(0x14)
    2327            
    2328            $C$DW$T$129     .dwtag  DW_TAG_typedef
    2329                    .dwattr $C$DW$T$129, DW_AT_name("__rman_res_t")
    2330                    .dwattr $C$DW$T$129, DW_AT_type(*$C$DW$T$128)
    2331                    .dwattr $C$DW$T$129, DW_AT_language(DW_LANG_C)
    2332                    .dwattr $C$DW$T$129, DW_AT_decl_file("C:/ti/ccs1200/ccs/tools/compiler/ti-cgt-msp430_21.6.0.LT
    2333                    .dwattr $C$DW$T$129, DW_AT_decl_line(0x9a)
    2334                    .dwattr $C$DW$T$129, DW_AT_decl_column(0x19)
    2335            
    2336            $C$DW$T$16      .dwtag  DW_TAG_base_type
    2337                    .dwattr $C$DW$T$16, DW_AT_encoding(DW_ATE_float)
    2338                    .dwattr $C$DW$T$16, DW_AT_name("float")
    2339                    .dwattr $C$DW$T$16, DW_AT_byte_size(0x04)
    2340            
    2341            $C$DW$T$130     .dwtag  DW_TAG_typedef
    2342                    .dwattr $C$DW$T$130, DW_AT_name("__float_t")
    2343                    .dwattr $C$DW$T$130, DW_AT_type(*$C$DW$T$16)
    2344                    .dwattr $C$DW$T$130, DW_AT_language(DW_LANG_C)
    2345                    .dwattr $C$DW$T$130, DW_AT_decl_file("C:/ti/ccs1200/ccs/tools/compiler/ti-cgt-msp430_21.6.0.LT
    2346                    .dwattr $C$DW$T$130, DW_AT_decl_line(0x4d)
    2347                    .dwattr $C$DW$T$130, DW_AT_decl_column(0x10)
    2348            
    2349            $C$DW$T$17      .dwtag  DW_TAG_base_type
    2350                    .dwattr $C$DW$T$17, DW_AT_encoding(DW_ATE_float)
    2351                    .dwattr $C$DW$T$17, DW_AT_name("double")
    2352                    .dwattr $C$DW$T$17, DW_AT_byte_size(0x08)
    2353            
    2354            $C$DW$T$131     .dwtag  DW_TAG_typedef
    2355                    .dwattr $C$DW$T$131, DW_AT_name("__double_t")
MSP430 Assembler PC v21.6.0 Tue Aug  1 23:01:41 2023

Copyright (c) 2003-2018 Texas Instruments Incorporated
C:\Users\eas0035\AppData\Local\Temp\{5BCD9170-B37C-44F2-A877-1E9220DDA60C} PAGE   50

    2356                    .dwattr $C$DW$T$131, DW_AT_type(*$C$DW$T$17)
    2357                    .dwattr $C$DW$T$131, DW_AT_language(DW_LANG_C)
    2358                    .dwattr $C$DW$T$131, DW_AT_decl_file("C:/ti/ccs1200/ccs/tools/compiler/ti-cgt-msp430_21.6.0.LT
    2359                    .dwattr $C$DW$T$131, DW_AT_decl_line(0x4c)
    2360                    .dwattr $C$DW$T$131, DW_AT_decl_column(0x11)
    2361            
    2362            $C$DW$T$18      .dwtag  DW_TAG_base_type
    2363                    .dwattr $C$DW$T$18, DW_AT_encoding(DW_ATE_float)
    2364                    .dwattr $C$DW$T$18, DW_AT_name("long double")
    2365                    .dwattr $C$DW$T$18, DW_AT_byte_size(0x08)
    2366            
    2367            $C$DW$T$33      .dwtag  DW_TAG_pointer_type
    2368                    .dwattr $C$DW$T$33, DW_AT_type(*$C$DW$T$6)
    2369                    .dwattr $C$DW$T$33, DW_AT_address_class(0x10)
    2370            
    2371            $C$DW$T$132     .dwtag  DW_TAG_typedef
    2372                    .dwattr $C$DW$T$132, DW_AT_name("__va_list")
    2373                    .dwattr $C$DW$T$132, DW_AT_type(*$C$DW$T$33)
    2374                    .dwattr $C$DW$T$132, DW_AT_language(DW_LANG_C)
    2375                    .dwattr $C$DW$T$132, DW_AT_decl_file("C:/ti/ccs1200/ccs/tools/compiler/ti-cgt-msp430_21.6.0.LT
    2376                    .dwattr $C$DW$T$132, DW_AT_decl_line(0x92)
    2377                    .dwattr $C$DW$T$132, DW_AT_decl_column(0x0f)
    2378            
    2379            $C$DW$T$133     .dwtag  DW_TAG_typedef
    2380                    .dwattr $C$DW$T$133, DW_AT_name("va_list")
    2381                    .dwattr $C$DW$T$133, DW_AT_type(*$C$DW$T$132)
    2382                    .dwattr $C$DW$T$133, DW_AT_language(DW_LANG_C)
    2383                    .dwattr $C$DW$T$133, DW_AT_decl_file("C:/ti/ccs1200/ccs/tools/compiler/ti-cgt-msp430_21.6.0.LT
    2384                    .dwattr $C$DW$T$133, DW_AT_decl_line(0x33)
    2385                    .dwattr $C$DW$T$133, DW_AT_decl_column(0x13)
    2386            
    2387            $C$DW$T$46      .dwtag  DW_TAG_const_type
    2388                    .dwattr $C$DW$T$46, DW_AT_type(*$C$DW$T$6)
    2389            
    2390            $C$DW$T$47      .dwtag  DW_TAG_pointer_type
    2391                    .dwattr $C$DW$T$47, DW_AT_type(*$C$DW$T$46)
    2392                    .dwattr $C$DW$T$47, DW_AT_address_class(0x10)
    2393            
    2394            $C$DW$T$48      .dwtag  DW_TAG_restrict_type
    2395                    .dwattr $C$DW$T$48, DW_AT_type(*$C$DW$T$47)
    2396            
    2397            
    2398            $C$DW$T$19      .dwtag  DW_TAG_structure_type
    2399                    .dwattr $C$DW$T$19, DW_AT_name("__mq")
    2400                    .dwattr $C$DW$T$19, DW_AT_declaration
    2401                    .dwattr $C$DW$T$19, DW_AT_decl_file("C:/ti/ccs1200/ccs/tools/compiler/ti-cgt-msp430_21.6.0.LTS
    2402                    .dwattr $C$DW$T$19, DW_AT_decl_line(0x4c)
    2403                    .dwattr $C$DW$T$19, DW_AT_decl_column(0x10)
    2404                    .dwendtag $C$DW$T$19
    2405            
    2406            $C$DW$T$134     .dwtag  DW_TAG_pointer_type
    2407                    .dwattr $C$DW$T$134, DW_AT_type(*$C$DW$T$19)
    2408                    .dwattr $C$DW$T$134, DW_AT_address_class(0x10)
    2409            
    2410            $C$DW$T$135     .dwtag  DW_TAG_typedef
MSP430 Assembler PC v21.6.0 Tue Aug  1 23:01:41 2023

Copyright (c) 2003-2018 Texas Instruments Incorporated
C:\Users\eas0035\AppData\Local\Temp\{5BCD9170-B37C-44F2-A877-1E9220DDA60C} PAGE   51

    2411                    .dwattr $C$DW$T$135, DW_AT_name("__mqd_t")
    2412                    .dwattr $C$DW$T$135, DW_AT_type(*$C$DW$T$134)
    2413                    .dwattr $C$DW$T$135, DW_AT_language(DW_LANG_C)
    2414                    .dwattr $C$DW$T$135, DW_AT_decl_file("C:/ti/ccs1200/ccs/tools/compiler/ti-cgt-msp430_21.6.0.LT
    2415                    .dwattr $C$DW$T$135, DW_AT_decl_line(0x4c)
    2416                    .dwattr $C$DW$T$135, DW_AT_decl_column(0x16)
    2417            
    2418            
    2419            $C$DW$T$24      .dwtag  DW_TAG_structure_type
    2420                    .dwattr $C$DW$T$24, DW_AT_name("__sFILE")
    2421                    .dwattr $C$DW$T$24, DW_AT_byte_size(0x0c)
    2422            $C$DW$91        .dwtag  DW_TAG_member
    2423                    .dwattr $C$DW$91, DW_AT_type(*$C$DW$T$10)
    2424                    .dwattr $C$DW$91, DW_AT_name("fd")
    2425                    .dwattr $C$DW$91, DW_AT_TI_symbol_name("fd")
    2426                    .dwattr $C$DW$91, DW_AT_data_member_location[DW_OP_plus_uconst 0x0]
    2427                    .dwattr $C$DW$91, DW_AT_accessibility(DW_ACCESS_public)
    2428                    .dwattr $C$DW$91, DW_AT_decl_file("C:/ti/ccs1200/ccs/tools/compiler/ti-cgt-msp430_21.6.0.LTS/i
    2429                    .dwattr $C$DW$91, DW_AT_decl_line(0x52)
    2430                    .dwattr $C$DW$91, DW_AT_decl_column(0x0b)
    2431            
    2432            $C$DW$92        .dwtag  DW_TAG_member
    2433                    .dwattr $C$DW$92, DW_AT_type(*$C$DW$T$23)
    2434                    .dwattr $C$DW$92, DW_AT_name("buf")
    2435                    .dwattr $C$DW$92, DW_AT_TI_symbol_name("buf")
    2436                    .dwattr $C$DW$92, DW_AT_data_member_location[DW_OP_plus_uconst 0x2]
    2437                    .dwattr $C$DW$92, DW_AT_accessibility(DW_ACCESS_public)
    2438                    .dwattr $C$DW$92, DW_AT_decl_file("C:/ti/ccs1200/ccs/tools/compiler/ti-cgt-msp430_21.6.0.LTS/i
    2439                    .dwattr $C$DW$92, DW_AT_decl_line(0x53)
    2440                    .dwattr $C$DW$92, DW_AT_decl_column(0x16)
    2441            
    2442            $C$DW$93        .dwtag  DW_TAG_member
    2443                    .dwattr $C$DW$93, DW_AT_type(*$C$DW$T$23)
    2444                    .dwattr $C$DW$93, DW_AT_name("pos")
    2445                    .dwattr $C$DW$93, DW_AT_TI_symbol_name("pos")
    2446                    .dwattr $C$DW$93, DW_AT_data_member_location[DW_OP_plus_uconst 0x4]
    2447                    .dwattr $C$DW$93, DW_AT_accessibility(DW_ACCESS_public)
    2448                    .dwattr $C$DW$93, DW_AT_decl_file("C:/ti/ccs1200/ccs/tools/compiler/ti-cgt-msp430_21.6.0.LTS/i
    2449                    .dwattr $C$DW$93, DW_AT_decl_line(0x54)
    2450                    .dwattr $C$DW$93, DW_AT_decl_column(0x16)
    2451            
    2452            $C$DW$94        .dwtag  DW_TAG_member
    2453                    .dwattr $C$DW$94, DW_AT_type(*$C$DW$T$23)
    2454                    .dwattr $C$DW$94, DW_AT_name("bufend")
    2455                    .dwattr $C$DW$94, DW_AT_TI_symbol_name("bufend")
    2456                    .dwattr $C$DW$94, DW_AT_data_member_location[DW_OP_plus_uconst 0x6]
    2457                    .dwattr $C$DW$94, DW_AT_accessibility(DW_ACCESS_public)
    2458                    .dwattr $C$DW$94, DW_AT_decl_file("C:/ti/ccs1200/ccs/tools/compiler/ti-cgt-msp430_21.6.0.LTS/i
    2459                    .dwattr $C$DW$94, DW_AT_decl_line(0x55)
    2460                    .dwattr $C$DW$94, DW_AT_decl_column(0x16)
    2461            
    2462            $C$DW$95        .dwtag  DW_TAG_member
    2463                    .dwattr $C$DW$95, DW_AT_type(*$C$DW$T$23)
    2464                    .dwattr $C$DW$95, DW_AT_name("buff_stop")
    2465                    .dwattr $C$DW$95, DW_AT_TI_symbol_name("buff_stop")
MSP430 Assembler PC v21.6.0 Tue Aug  1 23:01:41 2023

Copyright (c) 2003-2018 Texas Instruments Incorporated
C:\Users\eas0035\AppData\Local\Temp\{5BCD9170-B37C-44F2-A877-1E9220DDA60C} PAGE   52

    2466                    .dwattr $C$DW$95, DW_AT_data_member_location[DW_OP_plus_uconst 0x8]
    2467                    .dwattr $C$DW$95, DW_AT_accessibility(DW_ACCESS_public)
    2468                    .dwattr $C$DW$95, DW_AT_decl_file("C:/ti/ccs1200/ccs/tools/compiler/ti-cgt-msp430_21.6.0.LTS/i
    2469                    .dwattr $C$DW$95, DW_AT_decl_line(0x56)
    2470                    .dwattr $C$DW$95, DW_AT_decl_column(0x16)
    2471            
    2472            $C$DW$96        .dwtag  DW_TAG_member
    2473                    .dwattr $C$DW$96, DW_AT_type(*$C$DW$T$11)
    2474                    .dwattr $C$DW$96, DW_AT_name("flags")
    2475                    .dwattr $C$DW$96, DW_AT_TI_symbol_name("flags")
    2476                    .dwattr $C$DW$96, DW_AT_data_member_location[DW_OP_plus_uconst 0xa]
    2477                    .dwattr $C$DW$96, DW_AT_accessibility(DW_ACCESS_public)
    2478                    .dwattr $C$DW$96, DW_AT_decl_file("C:/ti/ccs1200/ccs/tools/compiler/ti-cgt-msp430_21.6.0.LTS/i
    2479                    .dwattr $C$DW$96, DW_AT_decl_line(0x57)
    2480                    .dwattr $C$DW$96, DW_AT_decl_column(0x16)
    2481            
    2482                    .dwattr $C$DW$T$24, DW_AT_decl_file("C:/ti/ccs1200/ccs/tools/compiler/ti-cgt-msp430_21.6.0.LTS
    2483                    .dwattr $C$DW$T$24, DW_AT_decl_line(0x51)
    2484                    .dwattr $C$DW$T$24, DW_AT_decl_column(0x08)
    2485                    .dwendtag $C$DW$T$24
    2486            
    2487            $C$DW$T$136     .dwtag  DW_TAG_typedef
    2488                    .dwattr $C$DW$T$136, DW_AT_name("FILE")
    2489                    .dwattr $C$DW$T$136, DW_AT_type(*$C$DW$T$24)
    2490                    .dwattr $C$DW$T$136, DW_AT_language(DW_LANG_C)
    2491                    .dwattr $C$DW$T$136, DW_AT_decl_file("C:/ti/ccs1200/ccs/tools/compiler/ti-cgt-msp430_21.6.0.LT
    2492                    .dwattr $C$DW$T$136, DW_AT_decl_line(0x5c)
    2493                    .dwattr $C$DW$T$136, DW_AT_decl_column(0x18)
    2494            
    2495            
    2496            $C$DW$T$20      .dwtag  DW_TAG_structure_type
    2497                    .dwattr $C$DW$T$20, DW_AT_name("__timer")
    2498                    .dwattr $C$DW$T$20, DW_AT_declaration
    2499                    .dwattr $C$DW$T$20, DW_AT_decl_file("C:/ti/ccs1200/ccs/tools/compiler/ti-cgt-msp430_21.6.0.LTS
    2500                    .dwattr $C$DW$T$20, DW_AT_decl_line(0x4b)
    2501                    .dwattr $C$DW$T$20, DW_AT_decl_column(0x10)
    2502                    .dwendtag $C$DW$T$20
    2503            
    2504            $C$DW$T$137     .dwtag  DW_TAG_pointer_type
    2505                    .dwattr $C$DW$T$137, DW_AT_type(*$C$DW$T$20)
    2506                    .dwattr $C$DW$T$137, DW_AT_address_class(0x10)
    2507            
    2508            $C$DW$T$138     .dwtag  DW_TAG_typedef
    2509                    .dwattr $C$DW$T$138, DW_AT_name("__timer_t")
    2510                    .dwattr $C$DW$T$138, DW_AT_type(*$C$DW$T$137)
    2511                    .dwattr $C$DW$T$138, DW_AT_language(DW_LANG_C)
    2512                    .dwattr $C$DW$T$138, DW_AT_decl_file("C:/ti/ccs1200/ccs/tools/compiler/ti-cgt-msp430_21.6.0.LT
    2513                    .dwattr $C$DW$T$138, DW_AT_decl_line(0x4b)
    2514                    .dwattr $C$DW$T$138, DW_AT_decl_column(0x19)
    2515            
    2516            
    2517            $C$DW$T$21      .dwtag  DW_TAG_structure_type
    2518                    .dwattr $C$DW$T$21, DW_AT_name("_xlocale")
    2519                    .dwattr $C$DW$T$21, DW_AT_declaration
    2520                    .dwattr $C$DW$T$21, DW_AT_decl_file("C:/ti/ccs1200/ccs/tools/compiler/ti-cgt-msp430_21.6.0.LTS
MSP430 Assembler PC v21.6.0 Tue Aug  1 23:01:41 2023

Copyright (c) 2003-2018 Texas Instruments Incorporated
C:\Users\eas0035\AppData\Local\Temp\{5BCD9170-B37C-44F2-A877-1E9220DDA60C} PAGE   53

    2521                    .dwattr $C$DW$T$21, DW_AT_decl_line(0x21)
    2522                    .dwattr $C$DW$T$21, DW_AT_decl_column(0x10)
    2523                    .dwendtag $C$DW$T$21
    2524            
    2525            $C$DW$T$139     .dwtag  DW_TAG_pointer_type
    2526                    .dwattr $C$DW$T$139, DW_AT_type(*$C$DW$T$21)
    2527                    .dwattr $C$DW$T$139, DW_AT_address_class(0x10)
    2528            
    2529            $C$DW$T$140     .dwtag  DW_TAG_typedef
    2530                    .dwattr $C$DW$T$140, DW_AT_name("locale_t")
    2531                    .dwattr $C$DW$T$140, DW_AT_type(*$C$DW$T$139)
    2532                    .dwattr $C$DW$T$140, DW_AT_language(DW_LANG_C)
    2533                    .dwattr $C$DW$T$140, DW_AT_decl_file("C:/ti/ccs1200/ccs/tools/compiler/ti-cgt-msp430_21.6.0.LT
    2534                    .dwattr $C$DW$T$140, DW_AT_decl_line(0x21)
    2535                    .dwattr $C$DW$T$140, DW_AT_decl_column(0x1a)
    2536            
    2537                    .dwattr $C$DW$CU, DW_AT_language(DW_LANG_C)
    2538            
    2539            ;***************************************************************
    2540            ;* DWARF CIE ENTRIES                                           *
    2541            ;***************************************************************
    2542            
    2543            $C$DW$CIE       .dwcie 16
    2544                    .dwcfi  cfa_register, 1
    2545                    .dwcfi  cfa_offset, 0
    2546                    .dwcfi  same_value, 0
    2547                    .dwcfi  same_value, 1
    2548                    .dwcfi  same_value, 3
    2549                    .dwcfi  same_value, 4
    2550                    .dwcfi  same_value, 5
    2551                    .dwcfi  same_value, 6
    2552                    .dwcfi  same_value, 7
    2553                    .dwcfi  same_value, 8
    2554                    .dwcfi  same_value, 9
    2555                    .dwcfi  same_value, 10
    2556                    .dwendentry
    2557            
    2558            ;***************************************************************
    2559            ;* DWARF REGISTER MAP                                          *
    2560            ;***************************************************************
    2561            
    2562            $C$DW$97        .dwtag  DW_TAG_TI_assign_register
    2563                    .dwattr $C$DW$97, DW_AT_name("PC")
    2564                    .dwattr $C$DW$97, DW_AT_location[DW_OP_reg0]
    2565            
    2566            $C$DW$98        .dwtag  DW_TAG_TI_assign_register
    2567                    .dwattr $C$DW$98, DW_AT_name("SP")
    2568                    .dwattr $C$DW$98, DW_AT_location[DW_OP_reg1]
    2569            
    2570            $C$DW$99        .dwtag  DW_TAG_TI_assign_register
    2571                    .dwattr $C$DW$99, DW_AT_name("SR")
    2572                    .dwattr $C$DW$99, DW_AT_location[DW_OP_reg2]
    2573            
    2574            $C$DW$100       .dwtag  DW_TAG_TI_assign_register
    2575                    .dwattr $C$DW$100, DW_AT_name("CG")
MSP430 Assembler PC v21.6.0 Tue Aug  1 23:01:41 2023

Copyright (c) 2003-2018 Texas Instruments Incorporated
C:\Users\eas0035\AppData\Local\Temp\{5BCD9170-B37C-44F2-A877-1E9220DDA60C} PAGE   54

    2576                    .dwattr $C$DW$100, DW_AT_location[DW_OP_reg3]
    2577            
    2578            $C$DW$101       .dwtag  DW_TAG_TI_assign_register
    2579                    .dwattr $C$DW$101, DW_AT_name("r4")
    2580                    .dwattr $C$DW$101, DW_AT_location[DW_OP_reg4]
    2581            
    2582            $C$DW$102       .dwtag  DW_TAG_TI_assign_register
    2583                    .dwattr $C$DW$102, DW_AT_name("r5")
    2584                    .dwattr $C$DW$102, DW_AT_location[DW_OP_reg5]
    2585            
    2586            $C$DW$103       .dwtag  DW_TAG_TI_assign_register
    2587                    .dwattr $C$DW$103, DW_AT_name("r6")
    2588                    .dwattr $C$DW$103, DW_AT_location[DW_OP_reg6]
    2589            
    2590            $C$DW$104       .dwtag  DW_TAG_TI_assign_register
    2591                    .dwattr $C$DW$104, DW_AT_name("r7")
    2592                    .dwattr $C$DW$104, DW_AT_location[DW_OP_reg7]
    2593            
    2594            $C$DW$105       .dwtag  DW_TAG_TI_assign_register
    2595                    .dwattr $C$DW$105, DW_AT_name("r8")
    2596                    .dwattr $C$DW$105, DW_AT_location[DW_OP_reg8]
    2597            
    2598            $C$DW$106       .dwtag  DW_TAG_TI_assign_register
    2599                    .dwattr $C$DW$106, DW_AT_name("r9")
    2600                    .dwattr $C$DW$106, DW_AT_location[DW_OP_reg9]
    2601            
    2602            $C$DW$107       .dwtag  DW_TAG_TI_assign_register
    2603                    .dwattr $C$DW$107, DW_AT_name("r10")
    2604                    .dwattr $C$DW$107, DW_AT_location[DW_OP_reg10]
    2605            
    2606            $C$DW$108       .dwtag  DW_TAG_TI_assign_register
    2607                    .dwattr $C$DW$108, DW_AT_name("r11")
    2608                    .dwattr $C$DW$108, DW_AT_location[DW_OP_reg11]
    2609            
    2610            $C$DW$109       .dwtag  DW_TAG_TI_assign_register
    2611                    .dwattr $C$DW$109, DW_AT_name("r12")
    2612                    .dwattr $C$DW$109, DW_AT_location[DW_OP_reg12]
    2613            
    2614            $C$DW$110       .dwtag  DW_TAG_TI_assign_register
    2615                    .dwattr $C$DW$110, DW_AT_name("r13")
    2616                    .dwattr $C$DW$110, DW_AT_location[DW_OP_reg13]
    2617            
    2618            $C$DW$111       .dwtag  DW_TAG_TI_assign_register
    2619                    .dwattr $C$DW$111, DW_AT_name("r14")
    2620                    .dwattr $C$DW$111, DW_AT_location[DW_OP_reg14]
    2621            
    2622            $C$DW$112       .dwtag  DW_TAG_TI_assign_register
    2623                    .dwattr $C$DW$112, DW_AT_name("r15")
    2624                    .dwattr $C$DW$112, DW_AT_location[DW_OP_reg15]
    2625            
    2626            $C$DW$113       .dwtag  DW_TAG_TI_assign_register
    2627                    .dwattr $C$DW$113, DW_AT_name("CIE_RETA")
    2628                    .dwattr $C$DW$113, DW_AT_location[DW_OP_reg16]
    2629            
    2630                    .dwendtag $C$DW$CU
MSP430 Assembler PC v21.6.0 Tue Aug  1 23:01:41 2023

Copyright (c) 2003-2018 Texas Instruments Incorporated
C:\Users\eas0035\AppData\Local\Temp\{5BCD9170-B37C-44F2-A877-1E9220DDA60C} PAGE   55

    2631            

No Assembly Errors, No Assembly Warnings
